   1               		.file	"a2dUtil.c"
   2               	__SP_H__ = 0x3e
   3               	__SP_L__ = 0x3d
   4               	__SREG__ = 0x3f
   5               	__RAMPZ__ = 0x3b
   6               	__tmp_reg__ = 0
   7               	__zero_reg__ = 1
   8               		.text
   9               	.Ltext0:
  10               		.cfi_sections	.debug_frame
  11               		.section	.text.adc_read_avg,"ax",@progbits
  12               	.global	adc_read_avg
  14               	adc_read_avg:
  15               	.LFB4:
  16               		.file 1 "includes/a2dUtil.c"
   1:includes/a2dUtil.c **** /**
   2:includes/a2dUtil.c ****  * @brief Analog to Digital Utilities
   3:includes/a2dUtil.c ****  * 
   4:includes/a2dUtil.c ****  * @file a2dUtil.c
   5:includes/a2dUtil.c ****  * @author 
   6:includes/a2dUtil.c ****  * @date 
   7:includes/a2dUtil.c ****  */
   8:includes/a2dUtil.c **** 
   9:includes/a2dUtil.c **** #include "a2dUtil.h"
  10:includes/a2dUtil.c **** 
  11:includes/a2dUtil.c **** /**
  12:includes/a2dUtil.c ****  * @brief The inbuilt ADC is used to convert an analog input voltage at the specified channel to a 
  13:includes/a2dUtil.c ****  * value through successive approximation.
  14:includes/a2dUtil.c ****  * This is done <ADC_SAMPLES> times and the results are averaged in order to obtain a more accurate
  15:includes/a2dUtil.c ****  * Reference: ATmega Datasheet Chapter 26 (ADC - Analog to Digital Converter)
  16:includes/a2dUtil.c ****  * 
  17:includes/a2dUtil.c ****  * @param ch The analog input channel
  18:includes/a2dUtil.c ****  * @return uint16_t 10 bit digital value representative of the analog input in the specified channe
  19:includes/a2dUtil.c ****  */
  20:includes/a2dUtil.c **** uint16_t adc_read_avg(uint8_t ch)
  21:includes/a2dUtil.c **** {
  17               		.loc 1 21 0
  18               		.cfi_startproc
  19               	.LVL0:
  20 0000 CF92      		push r12
  21               	.LCFI0:
  22               		.cfi_def_cfa_offset 3
  23               		.cfi_offset 12, -2
  24 0002 DF92      		push r13
  25               	.LCFI1:
  26               		.cfi_def_cfa_offset 4
  27               		.cfi_offset 13, -3
  28 0004 EF92      		push r14
  29               	.LCFI2:
  30               		.cfi_def_cfa_offset 5
  31               		.cfi_offset 14, -4
  32 0006 FF92      		push r15
  33               	.LCFI3:
  34               		.cfi_def_cfa_offset 6
  35               		.cfi_offset 15, -5
  36 0008 CF93      		push r28
  37               	.LCFI4:
  38               		.cfi_def_cfa_offset 7
  39               		.cfi_offset 28, -6
  40 000a DF93      		push r29
  41               	.LCFI5:
  42               		.cfi_def_cfa_offset 8
  43               		.cfi_offset 29, -7
  44               	/* prologue: function */
  45               	/* frame size = 0 */
  46               	/* stack size = 6 */
  47               	.L__stack_usage = 6
  48 000c D82F      		mov r29,r24
  49               	.LVL1:
  50               		.loc 1 21 0
  51 000e CAE0      		ldi r28,lo8(10)
  22:includes/a2dUtil.c **** 	uint32_t adcSUM = 0;
  52               		.loc 1 22 0
  53 0010 C12C      		mov r12,__zero_reg__
  54 0012 D12C      		mov r13,__zero_reg__
  55 0014 7601      		movw r14,r12
  56               	.LVL2:
  57               	.L2:
  58               	.LBB2:
  23:includes/a2dUtil.c **** 	for(uint8_t i = 0; i<ADC_SAMPLES; i++)
  24:includes/a2dUtil.c **** 	{
  25:includes/a2dUtil.c **** 		adcSUM += a2d_10bitCh(ch);
  59               		.loc 1 25 0 discriminator 3
  60 0016 8D2F      		mov r24,r29
  61 0018 0E94 0000 		call a2d_10bitCh
  62               	.LVL3:
  63 001c C80E      		add r12,r24
  64 001e D91E      		adc r13,r25
  65 0020 E11C      		adc r14,__zero_reg__
  66 0022 F11C      		adc r15,__zero_reg__
  67               	.LVL4:
  68 0024 C150      		subi r28,lo8(-(-1))
  69               	.LVL5:
  23:includes/a2dUtil.c **** 	for(uint8_t i = 0; i<ADC_SAMPLES; i++)
  70               		.loc 1 23 0 discriminator 3
  71 0026 01F4      		brne .L2
  72               	.LBE2:
  26:includes/a2dUtil.c **** 	}
  27:includes/a2dUtil.c **** 	return (uint16_t)(adcSUM/ADC_SAMPLES);
  73               		.loc 1 27 0
  74 0028 C701      		movw r24,r14
  75 002a B601      		movw r22,r12
  76 002c 2AE0      		ldi r18,lo8(10)
  77 002e 30E0      		ldi r19,0
  78 0030 40E0      		ldi r20,0
  79 0032 50E0      		ldi r21,0
  80 0034 0E94 0000 		call __udivmodsi4
  28:includes/a2dUtil.c **** }...
  81               		.loc 1 28 0
  82 0038 C901      		movw r24,r18
  83               	/* epilogue start */
  84 003a DF91      		pop r29
  85               	.LVL6:
  86 003c CF91      		pop r28
  87               	.LVL7:
  88 003e FF90      		pop r15
  89 0040 EF90      		pop r14
  90 0042 DF90      		pop r13
  91 0044 CF90      		pop r12
  92               	.LVL8:
  93 0046 0895      		ret
  94               		.cfi_endproc
  95               	.LFE4:
  97               		.text
  98               	.Letext0:
  99               		.file 2 "/usr/local/Cellar/avr-gcc/7.3.0/avr/include/stdlib.h"
 100               		.file 3 "/usr/local/Cellar/avr-gcc/7.3.0/lib/avr-gcc/7/gcc/avr/7.3.0/include/stddef.h"
 101               		.file 4 "/usr/local/Cellar/avr-gcc/7.3.0/avr/include/stdint.h"
 102               		.file 5 "./utils/a2d.h"