   1               		.file	"MCP2515.c"
   2               	__SP_H__ = 0x3e
   3               	__SP_L__ = 0x3d
   4               	__SREG__ = 0x3f
   5               	__RAMPZ__ = 0x3b
   6               	__tmp_reg__ = 0
   7               	__zero_reg__ = 1
   8               		.text
   9               	.Ltext0:
  10               		.cfi_sections	.debug_frame
  11               		.section	.text.MCP2515_CS_low,"ax",@progbits
  12               	.global	MCP2515_CS_low
  14               	MCP2515_CS_low:
  15               	.LVL0:
  16               	.LFB1:
  17               		.file 1 "utils/MCP2515.c"
   1:utils/MCP2515.c **** 
   2:utils/MCP2515.c **** #include "SPI.h"
   3:utils/MCP2515.c **** #include "MCP2515.h"
   4:utils/MCP2515.c **** 
   5:utils/MCP2515.c **** void MCP2515_init(uint8_t CANbus)
   6:utils/MCP2515.c **** {
   7:utils/MCP2515.c **** 	//DDRC |= (1<<MCP2515_PIN_RESET);		//set the reset pin to output
   8:utils/MCP2515.c **** 
   9:utils/MCP2515.c **** 	//MCP2515_PORT_RESET &= ~(1<<MCP2515_PIN_RESET);
  10:utils/MCP2515.c **** 	//_delay_us(50);
  11:utils/MCP2515.c **** 	//MCP2515_PORT_RESET |= (1<<MCP2515_PIN_RESET);
  12:utils/MCP2515.c **** 
  13:utils/MCP2515.c **** 
  14:utils/MCP2515.c **** 	MCP2515_instruction(CANbus, MCP2515_RESET); //instead of hard reset, perform software rest.
  15:utils/MCP2515.c **** 	
  16:utils/MCP2515.c **** 	MCP2515_bit_modify(CANbus, MCP2515_CANCTRL,128,0xE0);		//put the device into configuration mode.
  17:utils/MCP2515.c **** 	MCP2515_reg_write(CANbus, MCP2515_CNF1, 0x04);	//SJW = 0(1),BRP = 4(5)--> number in brackets is ac
  18:utils/MCP2515.c **** 	MCP2515_reg_write(CANbus, MCP2515_CNF2, 0xCA);	//BTL = 1, SAM = 1, PHSEG1 = 001(2), PRSEG = 010 (3
  19:utils/MCP2515.c **** 	MCP2515_reg_write(CANbus, MCP2515_CNF3, 0x01);	//SOF = 0, WAKFIL = 0, PHSEG2 = 001(2).
  20:utils/MCP2515.c **** 	MCP2515_reg_write(CANbus, MCP2515_CANINTE, 0b00000011);	//enable interrupt in rx0, rx1, tx0, tx1, 
  21:utils/MCP2515.c **** 	//MCP2515_reg_write(CANbus, MCP2515_CANINTF, 0b00011100);	//enable interrupt in rx0, rx1, tx0, tx1
  22:utils/MCP2515.c **** 	MCP2515_reg_write(CANbus, MCP2515_RTSCTRL, 0x01); //probably want to move this to a tx init functi
  23:utils/MCP2515.c **** 	//MCP2515_init_Rx();
  24:utils/MCP2515.c **** 	MCP2515_bit_modify(CANbus, MCP2515_CANCTRL, 0x00, 0xE0);		//put the device into it's functional mo
  25:utils/MCP2515.c **** 	
  26:utils/MCP2515.c **** }
  27:utils/MCP2515.c **** 
  28:utils/MCP2515.c **** 
  29:utils/MCP2515.c **** void MCP2515_CS_low(uint8_t CANbus)
  30:utils/MCP2515.c **** {
  18               		.loc 1 30 1 view -0
  19               		.cfi_startproc
  20               	/* prologue: function */
  21               	/* frame size = 0 */
  22               	/* stack size = 0 */
  23               	.L__stack_usage = 0
  31:utils/MCP2515.c **** 	switch(CANbus)
  24               		.loc 1 31 2 view .LVU1
  25 0000 8230      		cpi r24,lo8(2)
  26 0002 01F0      		breq .L2
  27 0004 8430      		cpi r24,lo8(4)
  28 0006 01F0      		breq .L3
  29 0008 8130      		cpi r24,lo8(1)
  30 000a 01F4      		brne .L1
  31               	.LVL1:
  32               	.LBB5:
  33               	.LBB6:
  32:utils/MCP2515.c **** 	{
  33:utils/MCP2515.c **** 		case MCP2515_CAN1:
  34:utils/MCP2515.c **** 			MCP2515_CAN1_PORT_CS &= ~(1<<MCP2515_CAN1_PIN_CS);
  34               		.loc 1 34 4 view .LVU2
  35               		.loc 1 34 25 is_stmt 0 view .LVU3
  36 000c 8091 0201 		lds r24,258
  37               	.LVL2:
  38               		.loc 1 34 25 view .LVU4
  39 0010 8E7F      		andi r24,lo8(-2)
  40               	.LVL3:
  41               	.L5:
  42               		.loc 1 34 25 view .LVU5
  43               	.LBE6:
  44               	.LBE5:
  35:utils/MCP2515.c **** 			break;
  36:utils/MCP2515.c **** 		case MCP2515_CAN2:
  37:utils/MCP2515.c **** 			MCP2515_CAN2_PORT_CS &= ~(1<<MCP2515_CAN2_PIN_CS);
  45               		.loc 1 37 25 view .LVU6
  46 0012 8093 0201 		sts 258,r24
  38:utils/MCP2515.c **** 			break;
  47               		.loc 1 38 4 is_stmt 1 view .LVU7
  48 0016 0895      		ret
  49               	.LVL4:
  50               	.L2:
  37:utils/MCP2515.c **** 			break;
  51               		.loc 1 37 4 view .LVU8
  37:utils/MCP2515.c **** 			break;
  52               		.loc 1 37 25 is_stmt 0 view .LVU9
  53 0018 8091 0201 		lds r24,258
  54               	.LVL5:
  37:utils/MCP2515.c **** 			break;
  55               		.loc 1 37 25 view .LVU10
  56 001c 8D7F      		andi r24,lo8(-3)
  57 001e 00C0      		rjmp .L5
  58               	.LVL6:
  59               	.L3:
  39:utils/MCP2515.c **** 		case MCP2515_CAN3:
  40:utils/MCP2515.c **** 			MCP2515_CAN3_PORT_CS &= ~(1<<MCP2515_CAN3_PIN_CS);
  60               		.loc 1 40 4 is_stmt 1 view .LVU11
  61               		.loc 1 40 25 is_stmt 0 view .LVU12
  62 0020 2898      		cbi 0x5,0
  41:utils/MCP2515.c **** 			break;
  63               		.loc 1 41 4 is_stmt 1 view .LVU13
  64               	.L1:
  65               	/* epilogue start */
  42:utils/MCP2515.c **** 		default:
  43:utils/MCP2515.c **** 			break;
  44:utils/MCP2515.c **** 	}
  45:utils/MCP2515.c **** }
  66               		.loc 1 45 1 is_stmt 0 view .LVU14
  67 0022 0895      		ret
  68               		.cfi_endproc
  69               	.LFE1:
  71               		.section	.text.MCP2515_CS_high,"ax",@progbits
  72               	.global	MCP2515_CS_high
  74               	MCP2515_CS_high:
  75               	.LVL7:
  76               	.LFB2:
  46:utils/MCP2515.c **** 
  47:utils/MCP2515.c **** void MCP2515_CS_high(uint8_t CANbus)
  48:utils/MCP2515.c **** {
  77               		.loc 1 48 1 is_stmt 1 view -0
  78               		.cfi_startproc
  79               	/* prologue: function */
  80               	/* frame size = 0 */
  81               	/* stack size = 0 */
  82               	.L__stack_usage = 0
  49:utils/MCP2515.c **** 	switch(CANbus)
  83               		.loc 1 49 2 view .LVU16
  84 0000 8230      		cpi r24,lo8(2)
  85 0002 01F0      		breq .L7
  86 0004 8430      		cpi r24,lo8(4)
  87 0006 01F0      		breq .L8
  88 0008 8130      		cpi r24,lo8(1)
  89 000a 01F4      		brne .L6
  90               	.LVL8:
  91               	.LBB9:
  92               	.LBB10:
  50:utils/MCP2515.c **** 	{
  51:utils/MCP2515.c **** 		case MCP2515_CAN1:
  52:utils/MCP2515.c **** 			MCP2515_CAN1_PORT_CS |= (1<<MCP2515_CAN1_PIN_CS);
  93               		.loc 1 52 4 view .LVU17
  94               		.loc 1 52 25 is_stmt 0 view .LVU18
  95 000c 8091 0201 		lds r24,258
  96               	.LVL9:
  97               		.loc 1 52 25 view .LVU19
  98 0010 8160      		ori r24,lo8(1)
  99               	.LVL10:
 100               	.L10:
 101               		.loc 1 52 25 view .LVU20
 102               	.LBE10:
 103               	.LBE9:
  53:utils/MCP2515.c **** 			break;
  54:utils/MCP2515.c **** 		case MCP2515_CAN2:
  55:utils/MCP2515.c **** 			MCP2515_CAN2_PORT_CS |= (1<<MCP2515_CAN2_PIN_CS);
 104               		.loc 1 55 25 view .LVU21
 105 0012 8093 0201 		sts 258,r24
  56:utils/MCP2515.c **** 			break;
 106               		.loc 1 56 4 is_stmt 1 view .LVU22
 107 0016 0895      		ret
 108               	.LVL11:
 109               	.L7:
  55:utils/MCP2515.c **** 			break;
 110               		.loc 1 55 4 view .LVU23
  55:utils/MCP2515.c **** 			break;
 111               		.loc 1 55 25 is_stmt 0 view .LVU24
 112 0018 8091 0201 		lds r24,258
 113               	.LVL12:
  55:utils/MCP2515.c **** 			break;
 114               		.loc 1 55 25 view .LVU25
 115 001c 8260      		ori r24,lo8(2)
 116 001e 00C0      		rjmp .L10
 117               	.LVL13:
 118               	.L8:
  57:utils/MCP2515.c **** 		case MCP2515_CAN3:
  58:utils/MCP2515.c **** 			MCP2515_CAN3_PORT_CS |= (1<<MCP2515_CAN3_PIN_CS);
 119               		.loc 1 58 4 is_stmt 1 view .LVU26
 120               		.loc 1 58 25 is_stmt 0 view .LVU27
 121 0020 289A      		sbi 0x5,0
  59:utils/MCP2515.c **** 			break;
 122               		.loc 1 59 4 is_stmt 1 view .LVU28
 123               	.L6:
 124               	/* epilogue start */
  60:utils/MCP2515.c **** 		default:
  61:utils/MCP2515.c **** 			break;
  62:utils/MCP2515.c **** 	}
  63:utils/MCP2515.c **** }
 125               		.loc 1 63 1 is_stmt 0 view .LVU29
 126 0022 0895      		ret
 127               		.cfi_endproc
 128               	.LFE2:
 130               		.section	.text.MCP2515_reg_write,"ax",@progbits
 131               	.global	MCP2515_reg_write
 133               	MCP2515_reg_write:
 134               	.LVL14:
 135               	.LFB3:
  64:utils/MCP2515.c **** 
  65:utils/MCP2515.c **** void MCP2515_reg_write(uint8_t CANbus, uint8_t reg_address, uint8_t reg_value)
  66:utils/MCP2515.c **** {
 136               		.loc 1 66 1 is_stmt 1 view -0
 137               		.cfi_startproc
 138               		.loc 1 66 1 is_stmt 0 view .LVU31
 139 0000 1F93      		push r17
 140               	.LCFI0:
 141               		.cfi_def_cfa_offset 3
 142               		.cfi_offset 17, -2
 143 0002 CF93      		push r28
 144               	.LCFI1:
 145               		.cfi_def_cfa_offset 4
 146               		.cfi_offset 28, -3
 147 0004 DF93      		push r29
 148               	.LCFI2:
 149               		.cfi_def_cfa_offset 5
 150               		.cfi_offset 29, -4
 151               	/* prologue: function */
 152               	/* frame size = 0 */
 153               	/* stack size = 3 */
 154               	.L__stack_usage = 3
 155 0006 C82F      		mov r28,r24
 156 0008 162F      		mov r17,r22
 157 000a D42F      		mov r29,r20
  67:utils/MCP2515.c **** 	MCP2515_CS_low(CANbus);			//unset CS so MCP2515 knows we are talking
 158               		.loc 1 67 2 is_stmt 1 view .LVU32
 159 000c 0E94 0000 		call MCP2515_CS_low
 160               	.LVL15:
  68:utils/MCP2515.c **** 	SPI_send_byte(MCP2515_WRITE);
 161               		.loc 1 68 2 view .LVU33
 162 0010 82E0      		ldi r24,lo8(2)
 163 0012 0E94 0000 		call SPI_send_byte
 164               	.LVL16:
  69:utils/MCP2515.c **** 	SPI_send_byte(reg_address);
 165               		.loc 1 69 2 view .LVU34
 166 0016 812F      		mov r24,r17
 167 0018 0E94 0000 		call SPI_send_byte
 168               	.LVL17:
  70:utils/MCP2515.c **** 	SPI_send_byte(reg_value);
 169               		.loc 1 70 2 view .LVU35
 170 001c 8D2F      		mov r24,r29
 171 001e 0E94 0000 		call SPI_send_byte
 172               	.LVL18:
  71:utils/MCP2515.c **** 	MCP2515_CS_high(CANbus);			//set the CS.
 173               		.loc 1 71 2 view .LVU36
 174 0022 8C2F      		mov r24,r28
 175               	/* epilogue start */
  72:utils/MCP2515.c **** 	//if(MCP2515_reg_read(CANbus, reg_address) == reg_value)flash_LED(1,RED_LED);
  73:utils/MCP2515.c **** }
 176               		.loc 1 73 1 is_stmt 0 view .LVU37
 177 0024 DF91      		pop r29
 178               	.LVL19:
 179               		.loc 1 73 1 view .LVU38
 180 0026 CF91      		pop r28
 181               	.LVL20:
 182               		.loc 1 73 1 view .LVU39
 183 0028 1F91      		pop r17
 184               	.LVL21:
  71:utils/MCP2515.c **** 	MCP2515_CS_high(CANbus);			//set the CS.
 185               		.loc 1 71 2 view .LVU40
 186 002a 0C94 0000 		jmp MCP2515_CS_high
 187               	.LVL22:
  71:utils/MCP2515.c **** 	MCP2515_CS_high(CANbus);			//set the CS.
 188               		.loc 1 71 2 view .LVU41
 189               		.cfi_endproc
 190               	.LFE3:
 192               		.section	.text.MCP2515_instruction,"ax",@progbits
 193               	.global	MCP2515_instruction
 195               	MCP2515_instruction:
 196               	.LVL23:
 197               	.LFB4:
  74:utils/MCP2515.c **** 
  75:utils/MCP2515.c **** void MCP2515_instruction(uint8_t CANbus, uint8_t instruction)
  76:utils/MCP2515.c **** {
 198               		.loc 1 76 1 is_stmt 1 view -0
 199               		.cfi_startproc
 200               		.loc 1 76 1 is_stmt 0 view .LVU43
 201 0000 CF93      		push r28
 202               	.LCFI3:
 203               		.cfi_def_cfa_offset 3
 204               		.cfi_offset 28, -2
 205 0002 DF93      		push r29
 206               	.LCFI4:
 207               		.cfi_def_cfa_offset 4
 208               		.cfi_offset 29, -3
 209               	/* prologue: function */
 210               	/* frame size = 0 */
 211               	/* stack size = 2 */
 212               	.L__stack_usage = 2
 213 0004 C82F      		mov r28,r24
 214 0006 D62F      		mov r29,r22
  77:utils/MCP2515.c **** 	MCP2515_CS_low(CANbus);			//unset CS so MCP2515 knows we are talking
 215               		.loc 1 77 2 is_stmt 1 view .LVU44
 216 0008 0E94 0000 		call MCP2515_CS_low
 217               	.LVL24:
  78:utils/MCP2515.c **** 	SPI_send_byte(instruction);
 218               		.loc 1 78 2 view .LVU45
 219 000c 8D2F      		mov r24,r29
 220 000e 0E94 0000 		call SPI_send_byte
 221               	.LVL25:
  79:utils/MCP2515.c **** 	MCP2515_CS_high(CANbus);			//set the CS.
 222               		.loc 1 79 2 view .LVU46
 223 0012 8C2F      		mov r24,r28
 224               	/* epilogue start */
  80:utils/MCP2515.c **** }
 225               		.loc 1 80 1 is_stmt 0 view .LVU47
 226 0014 DF91      		pop r29
 227               	.LVL26:
 228               		.loc 1 80 1 view .LVU48
 229 0016 CF91      		pop r28
 230               	.LVL27:
  79:utils/MCP2515.c **** 	MCP2515_CS_high(CANbus);			//set the CS.
 231               		.loc 1 79 2 view .LVU49
 232 0018 0C94 0000 		jmp MCP2515_CS_high
 233               	.LVL28:
  79:utils/MCP2515.c **** 	MCP2515_CS_high(CANbus);			//set the CS.
 234               		.loc 1 79 2 view .LVU50
 235               		.cfi_endproc
 236               	.LFE4:
 238               		.section	.text.MCP2515_bit_modify,"ax",@progbits
 239               	.global	MCP2515_bit_modify
 241               	MCP2515_bit_modify:
 242               	.LVL29:
 243               	.LFB5:
  81:utils/MCP2515.c **** 
  82:utils/MCP2515.c **** 
  83:utils/MCP2515.c **** void MCP2515_bit_modify(uint8_t CANbus,uint8_t reg_address, uint8_t reg_value, uint8_t reg_mask)
  84:utils/MCP2515.c **** {
 244               		.loc 1 84 1 is_stmt 1 view -0
 245               		.cfi_startproc
 246               		.loc 1 84 1 is_stmt 0 view .LVU52
 247 0000 0F93      		push r16
 248               	.LCFI5:
 249               		.cfi_def_cfa_offset 3
 250               		.cfi_offset 16, -2
 251 0002 1F93      		push r17
 252               	.LCFI6:
 253               		.cfi_def_cfa_offset 4
 254               		.cfi_offset 17, -3
 255 0004 CF93      		push r28
 256               	.LCFI7:
 257               		.cfi_def_cfa_offset 5
 258               		.cfi_offset 28, -4
 259 0006 DF93      		push r29
 260               	.LCFI8:
 261               		.cfi_def_cfa_offset 6
 262               		.cfi_offset 29, -5
 263               	/* prologue: function */
 264               	/* frame size = 0 */
 265               	/* stack size = 4 */
 266               	.L__stack_usage = 4
 267 0008 C82F      		mov r28,r24
 268 000a 062F      		mov r16,r22
 269 000c D42F      		mov r29,r20
 270 000e 122F      		mov r17,r18
  85:utils/MCP2515.c **** 	MCP2515_CS_low(CANbus);			//unset CS so MCP2515 knows we are talking
 271               		.loc 1 85 2 is_stmt 1 view .LVU53
 272 0010 0E94 0000 		call MCP2515_CS_low
 273               	.LVL30:
  86:utils/MCP2515.c **** 	SPI_send_byte(MCP2515_BITMODIFY);		//send instruction of bitmodify
 274               		.loc 1 86 2 view .LVU54
 275 0014 85E0      		ldi r24,lo8(5)
 276 0016 0E94 0000 		call SPI_send_byte
 277               	.LVL31:
  87:utils/MCP2515.c **** 	SPI_send_byte(reg_address);				//send address
 278               		.loc 1 87 2 view .LVU55
 279 001a 802F      		mov r24,r16
 280 001c 0E94 0000 		call SPI_send_byte
 281               	.LVL32:
  88:utils/MCP2515.c **** 	SPI_send_byte(reg_mask);				//send the mask
 282               		.loc 1 88 2 view .LVU56
 283 0020 812F      		mov r24,r17
 284 0022 0E94 0000 		call SPI_send_byte
 285               	.LVL33:
  89:utils/MCP2515.c **** 	SPI_send_byte(reg_value);				//send the data
 286               		.loc 1 89 2 view .LVU57
 287 0026 8D2F      		mov r24,r29
 288 0028 0E94 0000 		call SPI_send_byte
 289               	.LVL34:
  90:utils/MCP2515.c **** 	MCP2515_CS_high(CANbus);			//set the CS.
 290               		.loc 1 90 2 view .LVU58
 291 002c 8C2F      		mov r24,r28
 292               	/* epilogue start */
  91:utils/MCP2515.c **** }
 293               		.loc 1 91 1 is_stmt 0 view .LVU59
 294 002e DF91      		pop r29
 295               	.LVL35:
 296               		.loc 1 91 1 view .LVU60
 297 0030 CF91      		pop r28
 298               	.LVL36:
 299               		.loc 1 91 1 view .LVU61
 300 0032 1F91      		pop r17
 301               	.LVL37:
 302               		.loc 1 91 1 view .LVU62
 303 0034 0F91      		pop r16
 304               	.LVL38:
  90:utils/MCP2515.c **** 	MCP2515_CS_high(CANbus);			//set the CS.
 305               		.loc 1 90 2 view .LVU63
 306 0036 0C94 0000 		jmp MCP2515_CS_high
 307               	.LVL39:
  90:utils/MCP2515.c **** 	MCP2515_CS_high(CANbus);			//set the CS.
 308               		.loc 1 90 2 view .LVU64
 309               		.cfi_endproc
 310               	.LFE5:
 312               		.section	.text.MCP2515_init,"ax",@progbits
 313               	.global	MCP2515_init
 315               	MCP2515_init:
 316               	.LVL40:
 317               	.LFB0:
   6:utils/MCP2515.c **** 	//DDRC |= (1<<MCP2515_PIN_RESET);		//set the reset pin to output
 318               		.loc 1 6 1 is_stmt 1 view -0
 319               		.cfi_startproc
   6:utils/MCP2515.c **** 	//DDRC |= (1<<MCP2515_PIN_RESET);		//set the reset pin to output
 320               		.loc 1 6 1 is_stmt 0 view .LVU66
 321 0000 CF93      		push r28
 322               	.LCFI9:
 323               		.cfi_def_cfa_offset 3
 324               		.cfi_offset 28, -2
 325               	/* prologue: function */
 326               	/* frame size = 0 */
 327               	/* stack size = 1 */
 328               	.L__stack_usage = 1
 329 0002 C82F      		mov r28,r24
  14:utils/MCP2515.c **** 	
 330               		.loc 1 14 2 is_stmt 1 view .LVU67
 331 0004 60EC      		ldi r22,lo8(-64)
 332 0006 0E94 0000 		call MCP2515_instruction
 333               	.LVL41:
  16:utils/MCP2515.c **** 	MCP2515_reg_write(CANbus, MCP2515_CNF1, 0x04);	//SJW = 0(1),BRP = 4(5)--> number in brackets is ac
 334               		.loc 1 16 2 view .LVU68
 335 000a 20EE      		ldi r18,lo8(-32)
 336 000c 40E8      		ldi r20,lo8(-128)
 337 000e 6FE0      		ldi r22,lo8(15)
 338 0010 8C2F      		mov r24,r28
 339 0012 0E94 0000 		call MCP2515_bit_modify
 340               	.LVL42:
  17:utils/MCP2515.c **** 	MCP2515_reg_write(CANbus, MCP2515_CNF2, 0xCA);	//BTL = 1, SAM = 1, PHSEG1 = 001(2), PRSEG = 010 (3
 341               		.loc 1 17 2 view .LVU69
 342 0016 44E0      		ldi r20,lo8(4)
 343 0018 6AE2      		ldi r22,lo8(42)
 344 001a 8C2F      		mov r24,r28
 345 001c 0E94 0000 		call MCP2515_reg_write
 346               	.LVL43:
  18:utils/MCP2515.c **** 	MCP2515_reg_write(CANbus, MCP2515_CNF3, 0x01);	//SOF = 0, WAKFIL = 0, PHSEG2 = 001(2).
 347               		.loc 1 18 2 view .LVU70
 348 0020 4AEC      		ldi r20,lo8(-54)
 349 0022 69E2      		ldi r22,lo8(41)
 350 0024 8C2F      		mov r24,r28
 351 0026 0E94 0000 		call MCP2515_reg_write
 352               	.LVL44:
  19:utils/MCP2515.c **** 	MCP2515_reg_write(CANbus, MCP2515_CANINTE, 0b00000011);	//enable interrupt in rx0, rx1, tx0, tx1, 
 353               		.loc 1 19 2 view .LVU71
 354 002a 41E0      		ldi r20,lo8(1)
 355 002c 68E2      		ldi r22,lo8(40)
 356 002e 8C2F      		mov r24,r28
 357 0030 0E94 0000 		call MCP2515_reg_write
 358               	.LVL45:
  20:utils/MCP2515.c **** 	//MCP2515_reg_write(CANbus, MCP2515_CANINTF, 0b00011100);	//enable interrupt in rx0, rx1, tx0, tx1
 359               		.loc 1 20 2 view .LVU72
 360 0034 43E0      		ldi r20,lo8(3)
 361 0036 6BE2      		ldi r22,lo8(43)
 362 0038 8C2F      		mov r24,r28
 363 003a 0E94 0000 		call MCP2515_reg_write
 364               	.LVL46:
  22:utils/MCP2515.c **** 	//MCP2515_init_Rx();
 365               		.loc 1 22 2 view .LVU73
 366 003e 41E0      		ldi r20,lo8(1)
 367 0040 6DE0      		ldi r22,lo8(13)
 368 0042 8C2F      		mov r24,r28
 369 0044 0E94 0000 		call MCP2515_reg_write
 370               	.LVL47:
  24:utils/MCP2515.c **** 	
 371               		.loc 1 24 2 view .LVU74
 372 0048 20EE      		ldi r18,lo8(-32)
 373 004a 40E0      		ldi r20,0
 374 004c 6FE0      		ldi r22,lo8(15)
 375 004e 8C2F      		mov r24,r28
 376               	/* epilogue start */
  26:utils/MCP2515.c **** 
 377               		.loc 1 26 1 is_stmt 0 view .LVU75
 378 0050 CF91      		pop r28
 379               	.LVL48:
  24:utils/MCP2515.c **** 	
 380               		.loc 1 24 2 view .LVU76
 381 0052 0C94 0000 		jmp MCP2515_bit_modify
 382               	.LVL49:
  24:utils/MCP2515.c **** 	
 383               		.loc 1 24 2 view .LVU77
 384               		.cfi_endproc
 385               	.LFE0:
 387               		.section	.text.MCP2515_receive_status,"ax",@progbits
 388               	.global	MCP2515_receive_status
 390               	MCP2515_receive_status:
 391               	.LVL50:
 392               	.LFB6:
  92:utils/MCP2515.c **** 
  93:utils/MCP2515.c **** 
  94:utils/MCP2515.c **** uint8_t MCP2515_receive_status(uint8_t CANbus)
  95:utils/MCP2515.c **** {
 393               		.loc 1 95 1 is_stmt 1 view -0
 394               		.cfi_startproc
 395               		.loc 1 95 1 is_stmt 0 view .LVU79
 396 0000 CF93      		push r28
 397               	.LCFI10:
 398               		.cfi_def_cfa_offset 3
 399               		.cfi_offset 28, -2
 400 0002 DF93      		push r29
 401               	.LCFI11:
 402               		.cfi_def_cfa_offset 4
 403               		.cfi_offset 29, -3
 404               	/* prologue: function */
 405               	/* frame size = 0 */
 406               	/* stack size = 2 */
 407               	.L__stack_usage = 2
 408 0004 C82F      		mov r28,r24
  96:utils/MCP2515.c **** 	uint8_t mcp2515_status[2];
 409               		.loc 1 96 2 is_stmt 1 view .LVU80
  97:utils/MCP2515.c **** 	MCP2515_CS_low(CANbus);			//unset CS so MCP2515 knows we are talking
 410               		.loc 1 97 2 view .LVU81
 411 0006 0E94 0000 		call MCP2515_CS_low
 412               	.LVL51:
  98:utils/MCP2515.c **** 	SPI_send_byte(0xA0);					//send retrieve status instruction
 413               		.loc 1 98 2 view .LVU82
 414 000a 80EA      		ldi r24,lo8(-96)
 415 000c 0E94 0000 		call SPI_send_byte
 416               	.LVL52:
  99:utils/MCP2515.c **** 	mcp2515_status[0] = SPI_send_byte(0x00);//send don't care bits while mcp2515 is retrieving data.
 417               		.loc 1 99 2 view .LVU83
 418               		.loc 1 99 22 is_stmt 0 view .LVU84
 419 0010 80E0      		ldi r24,0
 420 0012 0E94 0000 		call SPI_send_byte
 421               	.LVL53:
 422 0016 D82F      		mov r29,r24
 423               	.LVL54:
 100:utils/MCP2515.c **** 	mcp2515_status[1] = SPI_send_byte(0x00);//duplicate data is retrieved again. nothing to do with th
 424               		.loc 1 100 2 is_stmt 1 view .LVU85
 425               		.loc 1 100 22 is_stmt 0 view .LVU86
 426 0018 80E0      		ldi r24,0
 427               	.LVL55:
 428               		.loc 1 100 22 view .LVU87
 429 001a 0E94 0000 		call SPI_send_byte
 430               	.LVL56:
 101:utils/MCP2515.c **** 	MCP2515_CS_high(CANbus);			//set the CS.
 431               		.loc 1 101 2 is_stmt 1 view .LVU88
 432 001e 8C2F      		mov r24,r28
 433 0020 0E94 0000 		call MCP2515_CS_high
 434               	.LVL57:
 102:utils/MCP2515.c **** 	return mcp2515_status[0];					//send it back for analysis.
 435               		.loc 1 102 2 view .LVU89
 103:utils/MCP2515.c **** }
 436               		.loc 1 103 1 is_stmt 0 view .LVU90
 437 0024 8D2F      		mov r24,r29
 438               	/* epilogue start */
 439 0026 DF91      		pop r29
 440               	.LVL58:
 441               		.loc 1 103 1 view .LVU91
 442 0028 CF91      		pop r28
 443               	.LVL59:
 444               		.loc 1 103 1 view .LVU92
 445 002a 0895      		ret
 446               		.cfi_endproc
 447               	.LFE6:
 449               		.section	.text.MCP2515_RxBufferRead,"ax",@progbits
 450               	.global	MCP2515_RxBufferRead
 452               	MCP2515_RxBufferRead:
 453               	.LVL60:
 454               	.LFB7:
 104:utils/MCP2515.c **** 
 105:utils/MCP2515.c **** /* README before using this!!!!!!!!
 106:utils/MCP2515.c ****  * this function takes a pointer to an array of data to write to, it must be either 8 or 13 element
 107:utils/MCP2515.c ****  * 13 elements in size for an address of RXBnSIDH
 108:utils/MCP2515.c ****  * 8  elements in size for an address of RXBnD0
 109:utils/MCP2515.c ****  * e.g-------------------------
 110:utils/MCP2515.c ****  *
 111:utils/MCP2515.c ****  * uint8_t data[13];
 112:utils/MCP2515.c ****  * MCP2515_RxBufferRead(data, RXB0SIDH);
 113:utils/MCP2515.c ****  *
 114:utils/MCP2515.c ****  * ---------------------------> this example will fill the data[13] array with elements from RXB0SI
 115:utils/MCP2515.c ****  *
 116:utils/MCP2515.c ****  * uint8_t data[8];
 117:utils/MCP2515.c ****  * MCP2515_RxBufferRead(data, RXB0D0);
 118:utils/MCP2515.c ****  * ---------------------------> this example will fill the data[8] array with bytes from RXB0D0-->R
 119:utils/MCP2515.c ****  *
 120:utils/MCP2515.c ****  * This function also automatically clears the interrupt flag CANINTF.RX0IF(in this case)
 121:utils/MCP2515.c ****  */
 122:utils/MCP2515.c **** void MCP2515_RxBufferRead(uint8_t CANbus, uint8_t * data, uint8_t rxBuffer)
 123:utils/MCP2515.c **** {
 455               		.loc 1 123 1 is_stmt 1 view -0
 456               		.cfi_startproc
 457               		.loc 1 123 1 is_stmt 0 view .LVU94
 458 0000 DF92      		push r13
 459               	.LCFI12:
 460               		.cfi_def_cfa_offset 3
 461               		.cfi_offset 13, -2
 462 0002 EF92      		push r14
 463               	.LCFI13:
 464               		.cfi_def_cfa_offset 4
 465               		.cfi_offset 14, -3
 466 0004 FF92      		push r15
 467               	.LCFI14:
 468               		.cfi_def_cfa_offset 5
 469               		.cfi_offset 15, -4
 470 0006 0F93      		push r16
 471               	.LCFI15:
 472               		.cfi_def_cfa_offset 6
 473               		.cfi_offset 16, -5
 474 0008 1F93      		push r17
 475               	.LCFI16:
 476               		.cfi_def_cfa_offset 7
 477               		.cfi_offset 17, -6
 478 000a CF93      		push r28
 479               	.LCFI17:
 480               		.cfi_def_cfa_offset 8
 481               		.cfi_offset 28, -7
 482 000c DF93      		push r29
 483               	.LCFI18:
 484               		.cfi_def_cfa_offset 9
 485               		.cfi_offset 29, -8
 486               	/* prologue: function */
 487               	/* frame size = 0 */
 488               	/* stack size = 7 */
 489               	.L__stack_usage = 7
 490 000e 182F      		mov r17,r24
 491 0010 062F      		mov r16,r22
 492 0012 D72E      		mov r13,r23
 124:utils/MCP2515.c **** 
 125:utils/MCP2515.c **** 
 126:utils/MCP2515.c **** 	//the following line combines the instruction(0b10010000), with: 0b100 for rxb0 or 0b000 for rxb1,
 127:utils/MCP2515.c **** 	uint8_t instruction = 0b10010000|((rxBuffer > 0x70)<<2)|((rxBuffer == MCP2515_RXB0D0 || rxBuffer =
 493               		.loc 1 127 2 is_stmt 1 view .LVU95
 494               		.loc 1 127 57 is_stmt 0 view .LVU96
 495 0014 4137      		cpi r20,lo8(113)
 496 0016 00F4      		brsh .L24
 497               		.loc 1 127 57 discriminator 4 view .LVU97
 498 0018 80E9      		ldi r24,lo8(-112)
 499               	.LVL61:
 500               		.loc 1 127 87 discriminator 4 view .LVU98
 501 001a C1E0      		ldi r28,lo8(1)
 502 001c D0E0      		ldi r29,0
 503 001e 4636      		cpi r20,lo8(102)
 504 0020 01F0      		breq .L18
 505               	.L17:
 506               		.loc 1 127 87 discriminator 6 view .LVU99
 507 0022 21E0      		ldi r18,lo8(1)
 508 0024 90E0      		ldi r25,0
 509 0026 4637      		cpi r20,lo8(118)
 510 0028 01F0      		breq .L19
 511 002a 20E0      		ldi r18,0
 512               	.L19:
 513 002c C22F      		mov r28,r18
 514 002e D92F      		mov r29,r25
 515               	.L18:
 516               		.loc 1 127 117 discriminator 10 view .LVU100
 517 0030 CC0F      		lsl r28
 518 0032 DD1F      		rol r29
 519               		.loc 1 127 57 discriminator 10 view .LVU101
 520 0034 C82B      		or r28,r24
 521               	.LVL62:
 128:utils/MCP2515.c **** 	MCP2515_CS_low(CANbus);			//lower CS.
 522               		.loc 1 128 2 is_stmt 1 discriminator 10 view .LVU102
 523 0036 812F      		mov r24,r17
 524 0038 0E94 0000 		call MCP2515_CS_low
 525               	.LVL63:
 129:utils/MCP2515.c **** 	SPI_send_byte(instruction);							//send instruction for stream of data
 526               		.loc 1 129 2 discriminator 10 view .LVU103
 527 003c 8C2F      		mov r24,r28
 528 003e 0E94 0000 		call SPI_send_byte
 529               	.LVL64:
 130:utils/MCP2515.c **** 	//loop counts to 8 or 12 depending on whether bit 1 of instruction is set.
 131:utils/MCP2515.c **** 	for(uint8_t counter = 0; counter < (8 + 4*((instruction & 2)==0)); counter++)
 530               		.loc 1 131 2 discriminator 10 view .LVU104
 531               	.LBB11:
 532               		.loc 1 131 6 discriminator 10 view .LVU105
 533               		.loc 1 131 6 is_stmt 0 discriminator 10 view .LVU106
 534 0042 9CE0      		ldi r25,lo8(12)
 535 0044 E92E      		mov r14,r25
 536 0046 F12C      		mov r15,__zero_reg__
 537 0048 C1FF      		sbrs r28,1
 538 004a 00C0      		rjmp .L21
 539 004c 88E0      		ldi r24,lo8(8)
 540 004e E82E      		mov r14,r24
 541 0050 F12C      		mov r15,__zero_reg__
 542               	.L21:
 543               		.loc 1 131 2 discriminator 10 view .LVU107
 544 0052 C02F      		mov r28,r16
 545               	.LVL65:
 546               		.loc 1 131 2 discriminator 10 view .LVU108
 547 0054 DD2D      		mov r29,r13
 548               	.LVL66:
 549               	.L22:
 550               		.loc 1 131 35 discriminator 1 view .LVU109
 551 0056 8C2F      		mov r24,r28
 552 0058 801B      		sub r24,r16
 553               		.loc 1 131 2 discriminator 1 view .LVU110
 554 005a 8E15      		cp r24,r14
 555 005c 1F04      		cpc __zero_reg__,r15
 556 005e 04F0      		brlt .L23
 557               	.LBE11:
 132:utils/MCP2515.c **** 	{
 133:utils/MCP2515.c **** 		*data = SPI_send_byte(0x00);
 134:utils/MCP2515.c **** 		data++;
 135:utils/MCP2515.c **** 	}
 136:utils/MCP2515.c **** 		MCP2515_CS_high(CANbus);				//raise CS.
 558               		.loc 1 136 3 is_stmt 1 view .LVU111
 559 0060 812F      		mov r24,r17
 560               	/* epilogue start */
 137:utils/MCP2515.c **** }
 561               		.loc 1 137 1 is_stmt 0 view .LVU112
 562 0062 DF91      		pop r29
 563 0064 CF91      		pop r28
 564               	.LVL67:
 565               		.loc 1 137 1 view .LVU113
 566 0066 1F91      		pop r17
 567               	.LVL68:
 568               		.loc 1 137 1 view .LVU114
 569 0068 0F91      		pop r16
 570 006a FF90      		pop r15
 571 006c EF90      		pop r14
 572 006e DF90      		pop r13
 136:utils/MCP2515.c **** }
 573               		.loc 1 136 3 view .LVU115
 574 0070 0C94 0000 		jmp MCP2515_CS_high
 575               	.LVL69:
 576               	.L24:
 127:utils/MCP2515.c **** 	MCP2515_CS_low(CANbus);			//lower CS.
 577               		.loc 1 127 57 view .LVU116
 578 0074 84E9      		ldi r24,lo8(-108)
 579 0076 00C0      		rjmp .L17
 580               	.LVL70:
 581               	.L23:
 582               	.LBB12:
 133:utils/MCP2515.c **** 		data++;
 583               		.loc 1 133 3 is_stmt 1 discriminator 7 view .LVU117
 133:utils/MCP2515.c **** 		data++;
 584               		.loc 1 133 11 is_stmt 0 discriminator 7 view .LVU118
 585 0078 80E0      		ldi r24,0
 586 007a 0E94 0000 		call SPI_send_byte
 587               	.LVL71:
 133:utils/MCP2515.c **** 		data++;
 588               		.loc 1 133 9 discriminator 7 view .LVU119
 589 007e 8993      		st Y+,r24
 590               	.LVL72:
 134:utils/MCP2515.c **** 	}
 591               		.loc 1 134 3 is_stmt 1 discriminator 7 view .LVU120
 134:utils/MCP2515.c **** 	}
 592               		.loc 1 134 3 is_stmt 0 discriminator 7 view .LVU121
 593 0080 00C0      		rjmp .L22
 594               	.LBE12:
 595               		.cfi_endproc
 596               	.LFE7:
 598               		.section	.text.MCP2515_PullCanPacket,"ax",@progbits
 599               	.global	MCP2515_PullCanPacket
 601               	MCP2515_PullCanPacket:
 602               	.LVL73:
 603               	.LFB8:
 138:utils/MCP2515.c **** void MCP2515_PullCanPacket(uint8_t CANbus, uint8_t mob,uint8_t * numBytes , uint8_t * data, uint32_
 139:utils/MCP2515.c **** {
 604               		.loc 1 139 1 is_stmt 1 view -0
 605               		.cfi_startproc
 606               		.loc 1 139 1 is_stmt 0 view .LVU123
 607 0000 4F92      		push r4
 608               	.LCFI19:
 609               		.cfi_def_cfa_offset 3
 610               		.cfi_offset 4, -2
 611 0002 5F92      		push r5
 612               	.LCFI20:
 613               		.cfi_def_cfa_offset 4
 614               		.cfi_offset 5, -3
 615 0004 6F92      		push r6
 616               	.LCFI21:
 617               		.cfi_def_cfa_offset 5
 618               		.cfi_offset 6, -4
 619 0006 7F92      		push r7
 620               	.LCFI22:
 621               		.cfi_def_cfa_offset 6
 622               		.cfi_offset 7, -5
 623 0008 BF92      		push r11
 624               	.LCFI23:
 625               		.cfi_def_cfa_offset 7
 626               		.cfi_offset 11, -6
 627 000a CF92      		push r12
 628               	.LCFI24:
 629               		.cfi_def_cfa_offset 8
 630               		.cfi_offset 12, -7
 631 000c DF92      		push r13
 632               	.LCFI25:
 633               		.cfi_def_cfa_offset 9
 634               		.cfi_offset 13, -8
 635 000e EF92      		push r14
 636               	.LCFI26:
 637               		.cfi_def_cfa_offset 10
 638               		.cfi_offset 14, -9
 639 0010 FF92      		push r15
 640               	.LCFI27:
 641               		.cfi_def_cfa_offset 11
 642               		.cfi_offset 15, -10
 643 0012 0F93      		push r16
 644               	.LCFI28:
 645               		.cfi_def_cfa_offset 12
 646               		.cfi_offset 16, -11
 647 0014 1F93      		push r17
 648               	.LCFI29:
 649               		.cfi_def_cfa_offset 13
 650               		.cfi_offset 17, -12
 651 0016 CF93      		push r28
 652               	.LCFI30:
 653               		.cfi_def_cfa_offset 14
 654               		.cfi_offset 28, -13
 655 0018 DF93      		push r29
 656               	.LCFI31:
 657               		.cfi_def_cfa_offset 15
 658               		.cfi_offset 29, -14
 659 001a CDB7      		in r28,__SP_L__
 660 001c DEB7      		in r29,__SP_H__
 661               	.LCFI32:
 662               		.cfi_def_cfa_register 28
 663 001e 2D97      		sbiw r28,13
 664               	.LCFI33:
 665               		.cfi_def_cfa_offset 28
 666 0020 0FB6      		in __tmp_reg__,__SREG__
 667 0022 F894      		cli
 668 0024 DEBF      		out __SP_H__,r29
 669 0026 0FBE      		out __SREG__,__tmp_reg__
 670 0028 CDBF      		out __SP_L__,r28
 671               	/* prologue: function */
 672               	/* frame size = 13 */
 673               	/* stack size = 26 */
 674               	.L__stack_usage = 26
 675 002a B82E      		mov r11,r24
 676 002c 6A01      		movw r12,r20
 677 002e 7901      		movw r14,r18
 140:utils/MCP2515.c **** 
 141:utils/MCP2515.c **** 	//the following line combines the instruction(0b10010000), with: 0b100 for rxb0 or 0b000 for rxb1,
 142:utils/MCP2515.c **** 	uint8_t instruction = 0b10010000|((mob > 0x70)<<2);
 678               		.loc 1 142 2 is_stmt 1 view .LVU124
 679               		.loc 1 142 10 is_stmt 0 view .LVU125
 680 0030 A0E9      		ldi r26,lo8(-112)
 681 0032 7A2E      		mov r7,r26
 682 0034 6137      		cpi r22,lo8(113)
 683 0036 00F0      		brlo .L30
 684 0038 F4E9      		ldi r31,lo8(-108)
 685 003a 7F2E      		mov r7,r31
 686               	.L30:
 687               	.LVL74:
 143:utils/MCP2515.c **** 	MCP2515_CS_low(CANbus);			//lower CS.
 688               		.loc 1 143 2 is_stmt 1 discriminator 4 view .LVU126
 689 003c 8B2D      		mov r24,r11
 690               	.LVL75:
 691               		.loc 1 143 2 is_stmt 0 discriminator 4 view .LVU127
 692 003e 0E94 0000 		call MCP2515_CS_low
 693               	.LVL76:
 144:utils/MCP2515.c **** 	SPI_send_byte(instruction);							//send instruction for stream of data
 694               		.loc 1 144 2 is_stmt 1 discriminator 4 view .LVU128
 695 0042 872D      		mov r24,r7
 696 0044 0E94 0000 		call SPI_send_byte
 697               	.LVL77:
 145:utils/MCP2515.c **** 	//loop counts to 8 or 12 depending on whether bit 1 of instruction is set.
 146:utils/MCP2515.c **** 	uint8_t tmpData[13];
 698               		.loc 1 146 2 discriminator 4 view .LVU129
 147:utils/MCP2515.c **** 	for(uint8_t counter = 0; counter < 13; counter++)
 699               		.loc 1 147 2 discriminator 4 view .LVU130
 700               	.LBB13:
 701               		.loc 1 147 6 discriminator 4 view .LVU131
 702               		.loc 1 147 6 is_stmt 0 discriminator 4 view .LVU132
 703 0048 CE01      		movw r24,r28
 704 004a 0196      		adiw r24,1
 705 004c 2C01      		movw r4,r24
 706 004e 3E01      		movw r6,r28
 707 0050 9EE0      		ldi r25,14
 708 0052 690E      		add r6,r25
 709 0054 711C      		adc r7,__zero_reg__
 710               	.LVL78:
 711               	.L31:
 148:utils/MCP2515.c **** 	{
 149:utils/MCP2515.c **** 		tmpData[counter] = SPI_send_byte(0x00);
 712               		.loc 1 149 3 is_stmt 1 discriminator 3 view .LVU133
 713               		.loc 1 149 22 is_stmt 0 discriminator 3 view .LVU134
 714 0056 80E0      		ldi r24,0
 715 0058 0E94 0000 		call SPI_send_byte
 716               	.LVL79:
 717               		.loc 1 149 20 discriminator 3 view .LVU135
 718 005c F201      		movw r30,r4
 719 005e 8193      		st Z+,r24
 720 0060 2F01      		movw r4,r30
 147:utils/MCP2515.c **** 	for(uint8_t counter = 0; counter < 13; counter++)
 721               		.loc 1 147 2 discriminator 3 view .LVU136
 722 0062 E615      		cp r30,r6
 723 0064 F705      		cpc r31,r7
 724 0066 01F4      		brne .L31
 725               	.LBE13:
 150:utils/MCP2515.c **** 	}
 151:utils/MCP2515.c **** 	*ID  = ((uint32_t)(tmpData[0]&0b11111111)<<21);
 726               		.loc 1 151 2 is_stmt 1 view .LVU137
 152:utils/MCP2515.c **** 	*ID |= ((uint32_t)(tmpData[1]&0b11100000)<<13);
 727               		.loc 1 152 2 view .LVU138
 728               		.loc 1 152 31 is_stmt 0 view .LVU139
 729 0068 4A81      		ldd r20,Y+2
 730 006a 50E0      		ldi r21,0
 731 006c 70E0      		ldi r23,0
 732 006e 60E0      		ldi r22,0
 153:utils/MCP2515.c **** 	*ID |= ((uint32_t)(tmpData[1]&0b00000011)<<16);
 733               		.loc 1 153 2 is_stmt 1 view .LVU140
 154:utils/MCP2515.c **** 	*ID |= ((uint32_t)(tmpData[2]&0b11111111)<<8);
 734               		.loc 1 154 2 view .LVU141
 155:utils/MCP2515.c **** 	*ID |= ((uint32_t)(tmpData[3]&0b11111111));
 735               		.loc 1 155 2 view .LVU142
 151:utils/MCP2515.c **** 	*ID |= ((uint32_t)(tmpData[1]&0b11100000)<<13);
 736               		.loc 1 151 10 is_stmt 0 view .LVU143
 737 0070 8981      		ldd r24,Y+1
 738 0072 90E0      		ldi r25,0
 739 0074 B0E0      		ldi r27,0
 740 0076 A0E0      		ldi r26,0
 151:utils/MCP2515.c **** 	*ID |= ((uint32_t)(tmpData[1]&0b11100000)<<13);
 741               		.loc 1 151 43 view .LVU144
 742 0078 25E1      		ldi r18,21
 743               		1:
 744 007a 880F      		lsl r24
 745 007c 991F      		rol r25
 746 007e AA1F      		rol r26
 747 0080 BB1F      		rol r27
 748 0082 2A95      		dec r18
 749 0084 01F4      		brne 1b
 154:utils/MCP2515.c **** 	*ID |= ((uint32_t)(tmpData[2]&0b11111111)<<8);
 750               		.loc 1 154 10 view .LVU145
 751 0086 2B81      		ldd r18,Y+3
 752               		.loc 1 155 6 view .LVU146
 753 0088 922B      		or r25,r18
 754               		.loc 1 155 10 view .LVU147
 755 008a 2C81      		ldd r18,Y+4
 756               		.loc 1 155 6 view .LVU148
 757 008c 822B      		or r24,r18
 152:utils/MCP2515.c **** 	*ID |= ((uint32_t)(tmpData[1]&0b00000011)<<16);
 758               		.loc 1 152 43 view .LVU149
 759 008e 2A01      		movw r4,r20
 760 0090 3B01      		movw r6,r22
 761 0092 3DE0      		ldi r19,13
 762               		1:
 763 0094 440C      		lsl r4
 764 0096 551C      		rol r5
 765 0098 661C      		rol r6
 766 009a 771C      		rol r7
 767 009c 3A95      		dec r19
 768 009e 01F4      		brne 1b
 769 00a0 4424      		clr r4
 770 00a2 5524      		clr r5
 771 00a4 FCE1      		ldi r31,28
 772 00a6 6F22      		and r6,r31
 773 00a8 7724      		clr r7
 774               		.loc 1 155 6 view .LVU150
 775 00aa 8429      		or r24,r4
 776 00ac 9529      		or r25,r5
 777 00ae A629      		or r26,r6
 778 00b0 B729      		or r27,r7
 153:utils/MCP2515.c **** 	*ID |= ((uint32_t)(tmpData[2]&0b11111111)<<8);
 779               		.loc 1 153 43 view .LVU151
 780 00b2 BA01      		movw r22,r20
 781 00b4 5527      		clr r21
 782 00b6 4427      		clr r20
 783 00b8 4427      		clr r20
 784 00ba 5527      		clr r21
 785 00bc 6370      		andi r22,3
 786 00be 7727      		clr r23
 787               		.loc 1 155 6 view .LVU152
 788 00c0 842B      		or r24,r20
 789 00c2 952B      		or r25,r21
 790 00c4 A62B      		or r26,r22
 791 00c6 B72B      		or r27,r23
 792 00c8 F801      		movw r30,r16
 793 00ca 8083      		st Z,r24
 794 00cc 9183      		std Z+1,r25
 795 00ce A283      		std Z+2,r26
 796 00d0 B383      		std Z+3,r27
 156:utils/MCP2515.c **** 	*numBytes = tmpData[12] & 0b00001111;
 797               		.loc 1 156 2 is_stmt 1 view .LVU153
 798               		.loc 1 156 26 is_stmt 0 view .LVU154
 799 00d2 4D85      		ldd r20,Y+13
 800 00d4 4F70      		andi r20,lo8(15)
 801               		.loc 1 156 12 view .LVU155
 802 00d6 F601      		movw r30,r12
 803 00d8 4083      		st Z,r20
 157:utils/MCP2515.c **** 	memcpy(data, &tmpData[4], *numBytes);
 804               		.loc 1 157 2 is_stmt 1 view .LVU156
 805 00da 50E0      		ldi r21,0
 806 00dc BE01      		movw r22,r28
 807 00de 6B5F      		subi r22,-5
 808 00e0 7F4F      		sbci r23,-1
 809 00e2 C701      		movw r24,r14
 810 00e4 0E94 0000 		call memcpy
 811               	.LVL80:
 158:utils/MCP2515.c **** 	
 159:utils/MCP2515.c **** 	
 160:utils/MCP2515.c **** 	MCP2515_CS_high(CANbus);				//raise CS.
 812               		.loc 1 160 2 view .LVU157
 813 00e8 8B2D      		mov r24,r11
 814               	/* epilogue start */
 161:utils/MCP2515.c **** }
 815               		.loc 1 161 1 is_stmt 0 view .LVU158
 816 00ea 2D96      		adiw r28,13
 817 00ec 0FB6      		in __tmp_reg__,__SREG__
 818 00ee F894      		cli
 819 00f0 DEBF      		out __SP_H__,r29
 820 00f2 0FBE      		out __SREG__,__tmp_reg__
 821 00f4 CDBF      		out __SP_L__,r28
 822 00f6 DF91      		pop r29
 823 00f8 CF91      		pop r28
 824 00fa 1F91      		pop r17
 825 00fc 0F91      		pop r16
 826               	.LVL81:
 827               		.loc 1 161 1 view .LVU159
 828 00fe FF90      		pop r15
 829 0100 EF90      		pop r14
 830               	.LVL82:
 831               		.loc 1 161 1 view .LVU160
 832 0102 DF90      		pop r13
 833 0104 CF90      		pop r12
 834               	.LVL83:
 835               		.loc 1 161 1 view .LVU161
 836 0106 BF90      		pop r11
 837               	.LVL84:
 838               		.loc 1 161 1 view .LVU162
 839 0108 7F90      		pop r7
 840               	.LVL85:
 841               		.loc 1 161 1 view .LVU163
 842 010a 6F90      		pop r6
 843 010c 5F90      		pop r5
 844 010e 4F90      		pop r4
 160:utils/MCP2515.c **** }
 845               		.loc 1 160 2 view .LVU164
 846 0110 0C94 0000 		jmp MCP2515_CS_high
 847               	.LVL86:
 160:utils/MCP2515.c **** }
 848               		.loc 1 160 2 view .LVU165
 849               		.cfi_endproc
 850               	.LFE8:
 852               		.section	.text.MCP2515_reg_read,"ax",@progbits
 853               	.global	MCP2515_reg_read
 855               	MCP2515_reg_read:
 856               	.LVL87:
 857               	.LFB9:
 162:utils/MCP2515.c **** 
 163:utils/MCP2515.c **** uint8_t MCP2515_reg_read(uint8_t CANbus, uint8_t reg_address)
 164:utils/MCP2515.c **** {
 858               		.loc 1 164 1 is_stmt 1 view -0
 859               		.cfi_startproc
 860               		.loc 1 164 1 is_stmt 0 view .LVU167
 861 0000 CF93      		push r28
 862               	.LCFI34:
 863               		.cfi_def_cfa_offset 3
 864               		.cfi_offset 28, -2
 865 0002 DF93      		push r29
 866               	.LCFI35:
 867               		.cfi_def_cfa_offset 4
 868               		.cfi_offset 29, -3
 869               	/* prologue: function */
 870               	/* frame size = 0 */
 871               	/* stack size = 2 */
 872               	.L__stack_usage = 2
 873 0004 C82F      		mov r28,r24
 874 0006 D62F      		mov r29,r22
 165:utils/MCP2515.c **** 	uint8_t read_result;
 875               		.loc 1 165 2 is_stmt 1 view .LVU168
 166:utils/MCP2515.c **** 	MCP2515_CS_low(CANbus);			//unset CS so MCP2515 knows we are talking
 876               		.loc 1 166 2 view .LVU169
 877 0008 0E94 0000 		call MCP2515_CS_low
 878               	.LVL88:
 167:utils/MCP2515.c **** 	SPI_send_byte(0x03);
 879               		.loc 1 167 2 view .LVU170
 880 000c 83E0      		ldi r24,lo8(3)
 881 000e 0E94 0000 		call SPI_send_byte
 882               	.LVL89:
 168:utils/MCP2515.c **** 	SPI_send_byte(reg_address);
 883               		.loc 1 168 2 view .LVU171
 884 0012 8D2F      		mov r24,r29
 885 0014 0E94 0000 		call SPI_send_byte
 886               	.LVL90:
 169:utils/MCP2515.c **** 	read_result = SPI_send_byte(0x00);
 887               		.loc 1 169 2 view .LVU172
 888               		.loc 1 169 16 is_stmt 0 view .LVU173
 889 0018 80E0      		ldi r24,0
 890 001a 0E94 0000 		call SPI_send_byte
 891               	.LVL91:
 892 001e D82F      		mov r29,r24
 893               	.LVL92:
 170:utils/MCP2515.c **** 	MCP2515_CS_high(CANbus);			//set the CS.
 894               		.loc 1 170 2 is_stmt 1 view .LVU174
 895 0020 8C2F      		mov r24,r28
 896               	.LVL93:
 897               		.loc 1 170 2 is_stmt 0 view .LVU175
 898 0022 0E94 0000 		call MCP2515_CS_high
 899               	.LVL94:
 171:utils/MCP2515.c **** 	return read_result;
 900               		.loc 1 171 2 is_stmt 1 view .LVU176
 172:utils/MCP2515.c **** }
 901               		.loc 1 172 1 is_stmt 0 view .LVU177
 902 0026 8D2F      		mov r24,r29
 903               	/* epilogue start */
 904 0028 DF91      		pop r29
 905               	.LVL95:
 906               		.loc 1 172 1 view .LVU178
 907 002a CF91      		pop r28
 908               	.LVL96:
 909               		.loc 1 172 1 view .LVU179
 910 002c 0895      		ret
 911               		.cfi_endproc
 912               	.LFE9:
 914               		.section	.text.MCP2515_findFreeTxBuffer,"ax",@progbits
 915               	.global	MCP2515_findFreeTxBuffer
 917               	MCP2515_findFreeTxBuffer:
 918               	.LVL97:
 919               	.LFB10:
 173:utils/MCP2515.c **** 
 174:utils/MCP2515.c **** uint8_t MCP2515_findFreeTxBuffer(uint8_t CANbus)
 175:utils/MCP2515.c **** {
 920               		.loc 1 175 1 is_stmt 1 view -0
 921               		.cfi_startproc
 922               		.loc 1 175 1 is_stmt 0 view .LVU181
 923 0000 CF93      		push r28
 924               	.LCFI36:
 925               		.cfi_def_cfa_offset 3
 926               		.cfi_offset 28, -2
 927               	/* prologue: function */
 928               	/* frame size = 0 */
 929               	/* stack size = 1 */
 930               	.L__stack_usage = 1
 931 0002 C82F      		mov r28,r24
 176:utils/MCP2515.c **** 	//uint8_t MCP2515_TxBuffer = 0;
 177:utils/MCP2515.c **** 	//flash_LED(1,RED_LED);
 178:utils/MCP2515.c **** 	//MCP2515_TxBuffer = (MCP2515_reg_read(CANbus, MCP2515_CANINTF)& 0b00011100);			//get interrupt st
 179:utils/MCP2515.c **** 	if		((MCP2515_reg_read(CANbus, MCP2515_TX0) & 0b00001000) == 0)						//if tx0 is free,
 932               		.loc 1 179 2 is_stmt 1 view .LVU182
 933               		.loc 1 179 8 is_stmt 0 view .LVU183
 934 0004 60E3      		ldi r22,lo8(48)
 935 0006 0E94 0000 		call MCP2515_reg_read
 936               	.LVL98:
 937               		.loc 1 179 6 view .LVU184
 938 000a 83FF      		sbrs r24,3
 939 000c 00C0      		rjmp .L37
 180:utils/MCP2515.c **** 	{
 181:utils/MCP2515.c **** 		return MCP2515_TX0;
 182:utils/MCP2515.c **** 	}
 183:utils/MCP2515.c **** 	else if	((MCP2515_reg_read(CANbus, MCP2515_TX1) & 0b00001000) == 0)						//if tx1 is free,
 940               		.loc 1 183 7 is_stmt 1 view .LVU185
 941               		.loc 1 183 12 is_stmt 0 view .LVU186
 942 000e 60E4      		ldi r22,lo8(64)
 943 0010 8C2F      		mov r24,r28
 944 0012 0E94 0000 		call MCP2515_reg_read
 945               	.LVL99:
 946               		.loc 1 183 10 view .LVU187
 947 0016 83FF      		sbrs r24,3
 948 0018 00C0      		rjmp .L38
 949               	.LVL100:
 950               	.LBB16:
 951               	.LBB17:
 184:utils/MCP2515.c **** 	{
 185:utils/MCP2515.c **** 		return MCP2515_TX1;
 186:utils/MCP2515.c **** 	}
 187:utils/MCP2515.c **** 	else if	((MCP2515_reg_read(CANbus, MCP2515_TX2) & 0b00001000) == 0)						//if tx2 is free,
 952               		.loc 1 187 7 is_stmt 1 view .LVU188
 953               		.loc 1 187 12 is_stmt 0 view .LVU189
 954 001a 60E5      		ldi r22,lo8(80)
 955 001c 8C2F      		mov r24,r28
 956 001e 0E94 0000 		call MCP2515_reg_read
 957               	.LVL101:
 958               		.loc 1 187 10 view .LVU190
 959 0022 83FF      		sbrs r24,3
 960 0024 00C0      		rjmp .L39
 188:utils/MCP2515.c **** 	{
 189:utils/MCP2515.c **** 		return MCP2515_TX2;
 190:utils/MCP2515.c **** 	}
 191:utils/MCP2515.c **** 	else {return 0x00;	}														//otherwise none are free.
 961               		.loc 1 191 15 view .LVU191
 962 0026 80E0      		ldi r24,0
 963               	.LVL102:
 964               	.L35:
 965               	/* epilogue start */
 966               		.loc 1 191 15 view .LVU192
 967               	.LBE17:
 968               	.LBE16:
 192:utils/MCP2515.c **** }
 969               		.loc 1 192 1 view .LVU193
 970 0028 CF91      		pop r28
 971               	.LVL103:
 972               		.loc 1 192 1 view .LVU194
 973 002a 0895      		ret
 974               	.LVL104:
 975               	.L37:
 181:utils/MCP2515.c **** 	}
 976               		.loc 1 181 10 view .LVU195
 977 002c 80E3      		ldi r24,lo8(48)
 978 002e 00C0      		rjmp .L35
 979               	.L38:
 185:utils/MCP2515.c **** 	}
 980               		.loc 1 185 10 view .LVU196
 981 0030 80E4      		ldi r24,lo8(64)
 982 0032 00C0      		rjmp .L35
 983               	.LVL105:
 984               	.L39:
 985               	.LBB19:
 986               	.LBB18:
 189:utils/MCP2515.c **** 	}
 987               		.loc 1 189 10 view .LVU197
 988 0034 80E5      		ldi r24,lo8(80)
 989 0036 00C0      		rjmp .L35
 990               	.LBE18:
 991               	.LBE19:
 992               		.cfi_endproc
 993               	.LFE10:
 995               		.section	.text.MCP2515_FilterInit,"ax",@progbits
 996               	.global	MCP2515_FilterInit
 998               	MCP2515_FilterInit:
 999               	.LVL106:
 1000               	.LFB11:
 193:utils/MCP2515.c **** 
 194:utils/MCP2515.c **** void MCP2515_FilterInit(uint8_t CANbus, uint8_t filterNum, uint32_t filterID)
 195:utils/MCP2515.c **** {
 1001               		.loc 1 195 1 is_stmt 1 view -0
 1002               		.cfi_startproc
 1003               		.loc 1 195 1 is_stmt 0 view .LVU199
 1004 0000 CF92      		push r12
 1005               	.LCFI37:
 1006               		.cfi_def_cfa_offset 3
 1007               		.cfi_offset 12, -2
 1008 0002 DF92      		push r13
 1009               	.LCFI38:
 1010               		.cfi_def_cfa_offset 4
 1011               		.cfi_offset 13, -3
 1012 0004 EF92      		push r14
 1013               	.LCFI39:
 1014               		.cfi_def_cfa_offset 5
 1015               		.cfi_offset 14, -4
 1016 0006 FF92      		push r15
 1017               	.LCFI40:
 1018               		.cfi_def_cfa_offset 6
 1019               		.cfi_offset 15, -5
 1020 0008 CF93      		push r28
 1021               	.LCFI41:
 1022               		.cfi_def_cfa_offset 7
 1023               		.cfi_offset 28, -6
 1024               	/* prologue: function */
 1025               	/* frame size = 0 */
 1026               	/* stack size = 5 */
 1027               	.L__stack_usage = 5
 1028 000a C82F      		mov r28,r24
 1029 000c 6901      		movw r12,r18
 1030 000e 7A01      		movw r14,r20
 196:utils/MCP2515.c **** 	switch(filterNum)
 1031               		.loc 1 196 2 is_stmt 1 view .LVU200
 1032 0010 6230      		cpi r22,lo8(2)
 1033 0012 01F4      		brne .+2
 1034 0014 00C0      		rjmp .L41
 1035 0016 00F4      		brsh .L42
 1036 0018 6623      		tst r22
 1037 001a 01F4      		brne .+2
 1038 001c 00C0      		rjmp .L43
 1039 001e 6130      		cpi r22,lo8(1)
 1040 0020 01F4      		brne .+2
 1041 0022 00C0      		rjmp .L44
 1042               	.L40:
 1043               	/* epilogue start */
 197:utils/MCP2515.c **** 	{
 198:utils/MCP2515.c **** 		case 0:
 199:utils/MCP2515.c **** 			MCP2515_reg_write(CANbus, MCP2515_RXF0SIDH, (filterID>>21) & 0xFF);
 200:utils/MCP2515.c **** 			MCP2515_reg_write(CANbus, MCP2515_RXF0SIDL, (((filterID>>13) & 224)| ((filterID>>16) & 3) | ((1<
 201:utils/MCP2515.c **** 			MCP2515_reg_write(CANbus, MCP2515_RXF0EID8, (filterID>>8) & 0xFF );
 202:utils/MCP2515.c **** 			MCP2515_reg_write(CANbus, MCP2515_RXF0EID0, filterID & 0xFF );
 203:utils/MCP2515.c **** 		case 1:
 204:utils/MCP2515.c **** 			MCP2515_reg_write(CANbus, MCP2515_RXF1SIDH, (filterID>>21) & 0xFF);
 205:utils/MCP2515.c **** 			MCP2515_reg_write(CANbus, MCP2515_RXF1SIDL, (((filterID>>13) & 224)| ((filterID>>16) & 3) | ((1<
 206:utils/MCP2515.c **** 			MCP2515_reg_write(CANbus, MCP2515_RXF1EID8, (filterID>>8) & 0xFF );
 207:utils/MCP2515.c **** 			MCP2515_reg_write(CANbus, MCP2515_RXF1EID0, filterID & 0xFF );
 208:utils/MCP2515.c **** 		case 2:
 209:utils/MCP2515.c **** 			MCP2515_reg_write(CANbus, MCP2515_RXF2SIDH, (filterID>>21) & 0xFF);
 210:utils/MCP2515.c **** 			MCP2515_reg_write(CANbus, MCP2515_RXF2SIDL, (((filterID>>13) & 224)| ((filterID>>16) & 3) | ((1<
 211:utils/MCP2515.c **** 			MCP2515_reg_write(CANbus, MCP2515_RXF2EID8, (filterID>>8) & 0xFF );
 212:utils/MCP2515.c **** 			MCP2515_reg_write(CANbus, MCP2515_RXF2EID0, filterID & 0xFF );
 213:utils/MCP2515.c **** 		case 3:
 214:utils/MCP2515.c **** 			MCP2515_reg_write(CANbus, MCP2515_RXF3SIDH, (filterID>>21) & 0xFF);
 215:utils/MCP2515.c **** 			MCP2515_reg_write(CANbus, MCP2515_RXF3SIDL, (((filterID>>13) & 224)| ((filterID>>16) & 3) | ((1<
 216:utils/MCP2515.c **** 			MCP2515_reg_write(CANbus, MCP2515_RXF3EID8, (filterID>>8) & 0xFF );
 217:utils/MCP2515.c **** 			MCP2515_reg_write(CANbus, MCP2515_RXF3EID0, filterID & 0xFF );
 218:utils/MCP2515.c **** 		case 4:
 219:utils/MCP2515.c **** 			MCP2515_reg_write(CANbus, MCP2515_RXF4SIDH, (filterID>>21) & 0xFF);
 220:utils/MCP2515.c **** 			MCP2515_reg_write(CANbus, MCP2515_RXF4SIDL, (((filterID>>13) & 224)| ((filterID>>16) & 3) | ((1<
 221:utils/MCP2515.c **** 			MCP2515_reg_write(CANbus, MCP2515_RXF4EID8, (filterID>>8) & 0xFF );
 222:utils/MCP2515.c **** 			MCP2515_reg_write(CANbus, MCP2515_RXF4EID0, filterID & 0xFF );
 223:utils/MCP2515.c **** 		case 5:
 224:utils/MCP2515.c **** 			MCP2515_reg_write(CANbus, MCP2515_RXF5SIDH, (filterID>>21) & 0xFF);
 225:utils/MCP2515.c **** 			MCP2515_reg_write(CANbus, MCP2515_RXF5SIDL, (((filterID>>13) & 224)| ((filterID>>16) & 3) | ((1<
 226:utils/MCP2515.c **** 			MCP2515_reg_write(CANbus, MCP2515_RXF5EID8, (filterID>>8) & 0xFF );
 227:utils/MCP2515.c **** 			MCP2515_reg_write(CANbus, MCP2515_RXF5EID0, filterID & 0xFF );
 228:utils/MCP2515.c **** 			
 229:utils/MCP2515.c **** 	}
 230:utils/MCP2515.c **** 		
 231:utils/MCP2515.c **** }
 1044               		.loc 1 231 1 is_stmt 0 view .LVU201
 1045 0024 CF91      		pop r28
 1046 0026 FF90      		pop r15
 1047 0028 EF90      		pop r14
 1048 002a DF90      		pop r13
 1049 002c CF90      		pop r12
 1050 002e 0895      		ret
 1051               	.L42:
 1052               		.loc 1 231 1 view .LVU202
 1053 0030 6430      		cpi r22,lo8(4)
 1054 0032 01F4      		brne .+2
 1055 0034 00C0      		rjmp .L46
 1056 0036 00F4      		brsh .+2
 1057 0038 00C0      		rjmp .L47
 1058 003a 6530      		cpi r22,lo8(5)
 1059 003c 01F4      		brne .L40
 1060               	.LVL107:
 1061               	.L48:
 224:utils/MCP2515.c **** 			MCP2515_reg_write(CANbus, MCP2515_RXF5SIDL, (((filterID>>13) & 224)| ((filterID>>16) & 3) | ((1<
 1062               		.loc 1 224 4 is_stmt 1 view .LVU203
 224:utils/MCP2515.c **** 			MCP2515_reg_write(CANbus, MCP2515_RXF5SIDL, (((filterID>>13) & 224)| ((filterID>>16) & 3) | ((1<
 1063               		.loc 1 224 57 is_stmt 0 view .LVU204
 1064 003e B701      		movw r22,r14
 1065 0040 A601      		movw r20,r12
 1066 0042 85E1      		ldi r24,21
 1067               		1:
 1068 0044 7695      		lsr r23
 1069 0046 6795      		ror r22
 1070 0048 5795      		ror r21
 1071 004a 4795      		ror r20
 1072 004c 8A95      		dec r24
 1073 004e 01F4      		brne 1b
 224:utils/MCP2515.c **** 			MCP2515_reg_write(CANbus, MCP2515_RXF5SIDL, (((filterID>>13) & 224)| ((filterID>>16) & 3) | ((1<
 1074               		.loc 1 224 4 view .LVU205
 1075 0050 68E1      		ldi r22,lo8(24)
 1076 0052 8C2F      		mov r24,r28
 1077 0054 0E94 0000 		call MCP2515_reg_write
 1078               	.LVL108:
 225:utils/MCP2515.c **** 			MCP2515_reg_write(CANbus, MCP2515_RXF5EID8, (filterID>>8) & 0xFF );
 1079               		.loc 1 225 4 is_stmt 1 view .LVU206
 225:utils/MCP2515.c **** 			MCP2515_reg_write(CANbus, MCP2515_RXF5EID8, (filterID>>8) & 0xFF );
 1080               		.loc 1 225 59 is_stmt 0 view .LVU207
 1081 0058 B701      		movw r22,r14
 1082 005a A601      		movw r20,r12
 1083 005c 9DE0      		ldi r25,13
 1084               		1:
 1085 005e 7695      		lsr r23
 1086 0060 6795      		ror r22
 1087 0062 5795      		ror r21
 1088 0064 4795      		ror r20
 1089 0066 9A95      		dec r25
 1090 0068 01F4      		brne 1b
 225:utils/MCP2515.c **** 			MCP2515_reg_write(CANbus, MCP2515_RXF5EID8, (filterID>>8) & 0xFF );
 1091               		.loc 1 225 65 view .LVU208
 1092 006a 407E      		andi r20,lo8(-32)
 225:utils/MCP2515.c **** 			MCP2515_reg_write(CANbus, MCP2515_RXF5EID8, (filterID>>8) & 0xFF );
 1093               		.loc 1 225 89 view .LVU209
 1094 006c 8E2D      		mov r24,r14
 1095 006e 8370      		andi r24,lo8(3)
 225:utils/MCP2515.c **** 			MCP2515_reg_write(CANbus, MCP2515_RXF5EID8, (filterID>>8) & 0xFF );
 1096               		.loc 1 225 71 view .LVU210
 1097 0070 482B      		or r20,r24
 225:utils/MCP2515.c **** 			MCP2515_reg_write(CANbus, MCP2515_RXF5EID8, (filterID>>8) & 0xFF );
 1098               		.loc 1 225 4 view .LVU211
 1099 0072 4860      		ori r20,lo8(8)
 1100 0074 69E1      		ldi r22,lo8(25)
 1101 0076 8C2F      		mov r24,r28
 1102 0078 0E94 0000 		call MCP2515_reg_write
 1103               	.LVL109:
 226:utils/MCP2515.c **** 			MCP2515_reg_write(CANbus, MCP2515_RXF5EID0, filterID & 0xFF );
 1104               		.loc 1 226 4 is_stmt 1 view .LVU212
 226:utils/MCP2515.c **** 			MCP2515_reg_write(CANbus, MCP2515_RXF5EID0, filterID & 0xFF );
 1105               		.loc 1 226 57 is_stmt 0 view .LVU213
 1106 007c 7727      		clr r23
 1107 007e 6F2D      		mov r22,r15
 1108 0080 5E2D      		mov r21,r14
 1109 0082 4D2D      		mov r20,r13
 226:utils/MCP2515.c **** 			MCP2515_reg_write(CANbus, MCP2515_RXF5EID0, filterID & 0xFF );
 1110               		.loc 1 226 4 view .LVU214
 1111 0084 6AE1      		ldi r22,lo8(26)
 1112 0086 8C2F      		mov r24,r28
 1113 0088 0E94 0000 		call MCP2515_reg_write
 1114               	.LVL110:
 227:utils/MCP2515.c **** 			
 1115               		.loc 1 227 4 is_stmt 1 view .LVU215
 1116 008c 4C2D      		mov r20,r12
 1117 008e 6BE1      		ldi r22,lo8(27)
 1118 0090 8C2F      		mov r24,r28
 1119               	/* epilogue start */
 1120               		.loc 1 231 1 is_stmt 0 view .LVU216
 1121 0092 CF91      		pop r28
 1122               	.LVL111:
 1123               		.loc 1 231 1 view .LVU217
 1124 0094 FF90      		pop r15
 1125 0096 EF90      		pop r14
 1126 0098 DF90      		pop r13
 1127 009a CF90      		pop r12
 227:utils/MCP2515.c **** 			
 1128               		.loc 1 227 4 view .LVU218
 1129 009c 0C94 0000 		jmp MCP2515_reg_write
 1130               	.LVL112:
 1131               	.L43:
 199:utils/MCP2515.c **** 			MCP2515_reg_write(CANbus, MCP2515_RXF0SIDL, (((filterID>>13) & 224)| ((filterID>>16) & 3) | ((1<
 1132               		.loc 1 199 4 is_stmt 1 view .LVU219
 199:utils/MCP2515.c **** 			MCP2515_reg_write(CANbus, MCP2515_RXF0SIDL, (((filterID>>13) & 224)| ((filterID>>16) & 3) | ((1<
 1133               		.loc 1 199 57 is_stmt 0 view .LVU220
 1134 00a0 BA01      		movw r22,r20
 1135               	.LVL113:
 199:utils/MCP2515.c **** 			MCP2515_reg_write(CANbus, MCP2515_RXF0SIDL, (((filterID>>13) & 224)| ((filterID>>16) & 3) | ((1<
 1136               		.loc 1 199 57 view .LVU221
 1137 00a2 A901      		movw r20,r18
 1138 00a4 B5E1      		ldi r27,21
 1139               		1:
 1140 00a6 7695      		lsr r23
 1141 00a8 6795      		ror r22
 1142 00aa 5795      		ror r21
 1143 00ac 4795      		ror r20
 1144 00ae BA95      		dec r27
 1145 00b0 01F4      		brne 1b
 199:utils/MCP2515.c **** 			MCP2515_reg_write(CANbus, MCP2515_RXF0SIDL, (((filterID>>13) & 224)| ((filterID>>16) & 3) | ((1<
 1146               		.loc 1 199 4 view .LVU222
 1147 00b2 60E0      		ldi r22,0
 1148 00b4 0E94 0000 		call MCP2515_reg_write
 1149               	.LVL114:
 200:utils/MCP2515.c **** 			MCP2515_reg_write(CANbus, MCP2515_RXF0EID8, (filterID>>8) & 0xFF );
 1150               		.loc 1 200 4 is_stmt 1 view .LVU223
 200:utils/MCP2515.c **** 			MCP2515_reg_write(CANbus, MCP2515_RXF0EID8, (filterID>>8) & 0xFF );
 1151               		.loc 1 200 59 is_stmt 0 view .LVU224
 1152 00b8 B701      		movw r22,r14
 1153 00ba A601      		movw r20,r12
 1154 00bc 8DE0      		ldi r24,13
 1155               		1:
 1156 00be 7695      		lsr r23
 1157 00c0 6795      		ror r22
 1158 00c2 5795      		ror r21
 1159 00c4 4795      		ror r20
 1160 00c6 8A95      		dec r24
 1161 00c8 01F4      		brne 1b
 200:utils/MCP2515.c **** 			MCP2515_reg_write(CANbus, MCP2515_RXF0EID8, (filterID>>8) & 0xFF );
 1162               		.loc 1 200 65 view .LVU225
 1163 00ca 407E      		andi r20,lo8(-32)
 200:utils/MCP2515.c **** 			MCP2515_reg_write(CANbus, MCP2515_RXF0EID8, (filterID>>8) & 0xFF );
 1164               		.loc 1 200 89 view .LVU226
 1165 00cc 8E2D      		mov r24,r14
 1166 00ce 8370      		andi r24,lo8(3)
 200:utils/MCP2515.c **** 			MCP2515_reg_write(CANbus, MCP2515_RXF0EID8, (filterID>>8) & 0xFF );
 1167               		.loc 1 200 71 view .LVU227
 1168 00d0 482B      		or r20,r24
 200:utils/MCP2515.c **** 			MCP2515_reg_write(CANbus, MCP2515_RXF0EID8, (filterID>>8) & 0xFF );
 1169               		.loc 1 200 4 view .LVU228
 1170 00d2 4860      		ori r20,lo8(8)
 1171 00d4 61E0      		ldi r22,lo8(1)
 1172 00d6 8C2F      		mov r24,r28
 1173 00d8 0E94 0000 		call MCP2515_reg_write
 1174               	.LVL115:
 201:utils/MCP2515.c **** 			MCP2515_reg_write(CANbus, MCP2515_RXF0EID0, filterID & 0xFF );
 1175               		.loc 1 201 4 is_stmt 1 view .LVU229
 201:utils/MCP2515.c **** 			MCP2515_reg_write(CANbus, MCP2515_RXF0EID0, filterID & 0xFF );
 1176               		.loc 1 201 57 is_stmt 0 view .LVU230
 1177 00dc 7727      		clr r23
 1178 00de 6F2D      		mov r22,r15
 1179 00e0 5E2D      		mov r21,r14
 1180 00e2 4D2D      		mov r20,r13
 201:utils/MCP2515.c **** 			MCP2515_reg_write(CANbus, MCP2515_RXF0EID0, filterID & 0xFF );
 1181               		.loc 1 201 4 view .LVU231
 1182 00e4 62E0      		ldi r22,lo8(2)
 1183 00e6 8C2F      		mov r24,r28
 1184 00e8 0E94 0000 		call MCP2515_reg_write
 1185               	.LVL116:
 202:utils/MCP2515.c **** 		case 1:
 1186               		.loc 1 202 4 is_stmt 1 view .LVU232
 1187 00ec 4C2D      		mov r20,r12
 1188 00ee 63E0      		ldi r22,lo8(3)
 1189 00f0 8C2F      		mov r24,r28
 1190 00f2 0E94 0000 		call MCP2515_reg_write
 1191               	.LVL117:
 1192               	.L44:
 204:utils/MCP2515.c **** 			MCP2515_reg_write(CANbus, MCP2515_RXF1SIDL, (((filterID>>13) & 224)| ((filterID>>16) & 3) | ((1<
 1193               		.loc 1 204 4 view .LVU233
 204:utils/MCP2515.c **** 			MCP2515_reg_write(CANbus, MCP2515_RXF1SIDL, (((filterID>>13) & 224)| ((filterID>>16) & 3) | ((1<
 1194               		.loc 1 204 57 is_stmt 0 view .LVU234
 1195 00f6 B701      		movw r22,r14
 1196 00f8 A601      		movw r20,r12
 1197 00fa E5E1      		ldi r30,21
 1198               		1:
 1199 00fc 7695      		lsr r23
 1200 00fe 6795      		ror r22
 1201 0100 5795      		ror r21
 1202 0102 4795      		ror r20
 1203 0104 EA95      		dec r30
 1204 0106 01F4      		brne 1b
 204:utils/MCP2515.c **** 			MCP2515_reg_write(CANbus, MCP2515_RXF1SIDL, (((filterID>>13) & 224)| ((filterID>>16) & 3) | ((1<
 1205               		.loc 1 204 4 view .LVU235
 1206 0108 64E0      		ldi r22,lo8(4)
 1207 010a 8C2F      		mov r24,r28
 1208 010c 0E94 0000 		call MCP2515_reg_write
 1209               	.LVL118:
 205:utils/MCP2515.c **** 			MCP2515_reg_write(CANbus, MCP2515_RXF1EID8, (filterID>>8) & 0xFF );
 1210               		.loc 1 205 4 is_stmt 1 view .LVU236
 205:utils/MCP2515.c **** 			MCP2515_reg_write(CANbus, MCP2515_RXF1EID8, (filterID>>8) & 0xFF );
 1211               		.loc 1 205 59 is_stmt 0 view .LVU237
 1212 0110 B701      		movw r22,r14
 1213 0112 A601      		movw r20,r12
 1214 0114 FDE0      		ldi r31,13
 1215               		1:
 1216 0116 7695      		lsr r23
 1217 0118 6795      		ror r22
 1218 011a 5795      		ror r21
 1219 011c 4795      		ror r20
 1220 011e FA95      		dec r31
 1221 0120 01F4      		brne 1b
 205:utils/MCP2515.c **** 			MCP2515_reg_write(CANbus, MCP2515_RXF1EID8, (filterID>>8) & 0xFF );
 1222               		.loc 1 205 65 view .LVU238
 1223 0122 407E      		andi r20,lo8(-32)
 205:utils/MCP2515.c **** 			MCP2515_reg_write(CANbus, MCP2515_RXF1EID8, (filterID>>8) & 0xFF );
 1224               		.loc 1 205 89 view .LVU239
 1225 0124 8E2D      		mov r24,r14
 1226 0126 8370      		andi r24,lo8(3)
 205:utils/MCP2515.c **** 			MCP2515_reg_write(CANbus, MCP2515_RXF1EID8, (filterID>>8) & 0xFF );
 1227               		.loc 1 205 71 view .LVU240
 1228 0128 482B      		or r20,r24
 205:utils/MCP2515.c **** 			MCP2515_reg_write(CANbus, MCP2515_RXF1EID8, (filterID>>8) & 0xFF );
 1229               		.loc 1 205 4 view .LVU241
 1230 012a 4860      		ori r20,lo8(8)
 1231 012c 65E0      		ldi r22,lo8(5)
 1232 012e 8C2F      		mov r24,r28
 1233 0130 0E94 0000 		call MCP2515_reg_write
 1234               	.LVL119:
 206:utils/MCP2515.c **** 			MCP2515_reg_write(CANbus, MCP2515_RXF1EID0, filterID & 0xFF );
 1235               		.loc 1 206 4 is_stmt 1 view .LVU242
 206:utils/MCP2515.c **** 			MCP2515_reg_write(CANbus, MCP2515_RXF1EID0, filterID & 0xFF );
 1236               		.loc 1 206 57 is_stmt 0 view .LVU243
 1237 0134 7727      		clr r23
 1238 0136 6F2D      		mov r22,r15
 1239 0138 5E2D      		mov r21,r14
 1240 013a 4D2D      		mov r20,r13
 206:utils/MCP2515.c **** 			MCP2515_reg_write(CANbus, MCP2515_RXF1EID0, filterID & 0xFF );
 1241               		.loc 1 206 4 view .LVU244
 1242 013c 66E0      		ldi r22,lo8(6)
 1243 013e 8C2F      		mov r24,r28
 1244 0140 0E94 0000 		call MCP2515_reg_write
 1245               	.LVL120:
 207:utils/MCP2515.c **** 		case 2:
 1246               		.loc 1 207 4 is_stmt 1 view .LVU245
 1247 0144 4C2D      		mov r20,r12
 1248 0146 67E0      		ldi r22,lo8(7)
 1249 0148 8C2F      		mov r24,r28
 1250 014a 0E94 0000 		call MCP2515_reg_write
 1251               	.LVL121:
 1252               	.L41:
 209:utils/MCP2515.c **** 			MCP2515_reg_write(CANbus, MCP2515_RXF2SIDL, (((filterID>>13) & 224)| ((filterID>>16) & 3) | ((1<
 1253               		.loc 1 209 4 view .LVU246
 209:utils/MCP2515.c **** 			MCP2515_reg_write(CANbus, MCP2515_RXF2SIDL, (((filterID>>13) & 224)| ((filterID>>16) & 3) | ((1<
 1254               		.loc 1 209 57 is_stmt 0 view .LVU247
 1255 014e B701      		movw r22,r14
 1256 0150 A601      		movw r20,r12
 1257 0152 95E1      		ldi r25,21
 1258               		1:
 1259 0154 7695      		lsr r23
 1260 0156 6795      		ror r22
 1261 0158 5795      		ror r21
 1262 015a 4795      		ror r20
 1263 015c 9A95      		dec r25
 1264 015e 01F4      		brne 1b
 209:utils/MCP2515.c **** 			MCP2515_reg_write(CANbus, MCP2515_RXF2SIDL, (((filterID>>13) & 224)| ((filterID>>16) & 3) | ((1<
 1265               		.loc 1 209 4 view .LVU248
 1266 0160 68E0      		ldi r22,lo8(8)
 1267 0162 8C2F      		mov r24,r28
 1268 0164 0E94 0000 		call MCP2515_reg_write
 1269               	.LVL122:
 210:utils/MCP2515.c **** 			MCP2515_reg_write(CANbus, MCP2515_RXF2EID8, (filterID>>8) & 0xFF );
 1270               		.loc 1 210 4 is_stmt 1 view .LVU249
 210:utils/MCP2515.c **** 			MCP2515_reg_write(CANbus, MCP2515_RXF2EID8, (filterID>>8) & 0xFF );
 1271               		.loc 1 210 59 is_stmt 0 view .LVU250
 1272 0168 B701      		movw r22,r14
 1273 016a A601      		movw r20,r12
 1274 016c 2DE0      		ldi r18,13
 1275               		1:
 1276 016e 7695      		lsr r23
 1277 0170 6795      		ror r22
 1278 0172 5795      		ror r21
 1279 0174 4795      		ror r20
 1280 0176 2A95      		dec r18
 1281 0178 01F4      		brne 1b
 210:utils/MCP2515.c **** 			MCP2515_reg_write(CANbus, MCP2515_RXF2EID8, (filterID>>8) & 0xFF );
 1282               		.loc 1 210 65 view .LVU251
 1283 017a 407E      		andi r20,lo8(-32)
 210:utils/MCP2515.c **** 			MCP2515_reg_write(CANbus, MCP2515_RXF2EID8, (filterID>>8) & 0xFF );
 1284               		.loc 1 210 89 view .LVU252
 1285 017c 8E2D      		mov r24,r14
 1286 017e 8370      		andi r24,lo8(3)
 210:utils/MCP2515.c **** 			MCP2515_reg_write(CANbus, MCP2515_RXF2EID8, (filterID>>8) & 0xFF );
 1287               		.loc 1 210 71 view .LVU253
 1288 0180 482B      		or r20,r24
 210:utils/MCP2515.c **** 			MCP2515_reg_write(CANbus, MCP2515_RXF2EID8, (filterID>>8) & 0xFF );
 1289               		.loc 1 210 4 view .LVU254
 1290 0182 4860      		ori r20,lo8(8)
 1291 0184 69E0      		ldi r22,lo8(9)
 1292 0186 8C2F      		mov r24,r28
 1293 0188 0E94 0000 		call MCP2515_reg_write
 1294               	.LVL123:
 211:utils/MCP2515.c **** 			MCP2515_reg_write(CANbus, MCP2515_RXF2EID0, filterID & 0xFF );
 1295               		.loc 1 211 4 is_stmt 1 view .LVU255
 211:utils/MCP2515.c **** 			MCP2515_reg_write(CANbus, MCP2515_RXF2EID0, filterID & 0xFF );
 1296               		.loc 1 211 57 is_stmt 0 view .LVU256
 1297 018c 7727      		clr r23
 1298 018e 6F2D      		mov r22,r15
 1299 0190 5E2D      		mov r21,r14
 1300 0192 4D2D      		mov r20,r13
 211:utils/MCP2515.c **** 			MCP2515_reg_write(CANbus, MCP2515_RXF2EID0, filterID & 0xFF );
 1301               		.loc 1 211 4 view .LVU257
 1302 0194 6AE0      		ldi r22,lo8(10)
 1303 0196 8C2F      		mov r24,r28
 1304 0198 0E94 0000 		call MCP2515_reg_write
 1305               	.LVL124:
 212:utils/MCP2515.c **** 		case 3:
 1306               		.loc 1 212 4 is_stmt 1 view .LVU258
 1307 019c 4C2D      		mov r20,r12
 1308 019e 6BE0      		ldi r22,lo8(11)
 1309 01a0 8C2F      		mov r24,r28
 1310 01a2 0E94 0000 		call MCP2515_reg_write
 1311               	.LVL125:
 1312               	.L47:
 214:utils/MCP2515.c **** 			MCP2515_reg_write(CANbus, MCP2515_RXF3SIDL, (((filterID>>13) & 224)| ((filterID>>16) & 3) | ((1<
 1313               		.loc 1 214 4 view .LVU259
 214:utils/MCP2515.c **** 			MCP2515_reg_write(CANbus, MCP2515_RXF3SIDL, (((filterID>>13) & 224)| ((filterID>>16) & 3) | ((1<
 1314               		.loc 1 214 57 is_stmt 0 view .LVU260
 1315 01a6 B701      		movw r22,r14
 1316 01a8 A601      		movw r20,r12
 1317 01aa A5E1      		ldi r26,21
 1318               		1:
 1319 01ac 7695      		lsr r23
 1320 01ae 6795      		ror r22
 1321 01b0 5795      		ror r21
 1322 01b2 4795      		ror r20
 1323 01b4 AA95      		dec r26
 1324 01b6 01F4      		brne 1b
 214:utils/MCP2515.c **** 			MCP2515_reg_write(CANbus, MCP2515_RXF3SIDL, (((filterID>>13) & 224)| ((filterID>>16) & 3) | ((1<
 1325               		.loc 1 214 4 view .LVU261
 1326 01b8 60E1      		ldi r22,lo8(16)
 1327 01ba 8C2F      		mov r24,r28
 1328 01bc 0E94 0000 		call MCP2515_reg_write
 1329               	.LVL126:
 215:utils/MCP2515.c **** 			MCP2515_reg_write(CANbus, MCP2515_RXF3EID8, (filterID>>8) & 0xFF );
 1330               		.loc 1 215 4 is_stmt 1 view .LVU262
 215:utils/MCP2515.c **** 			MCP2515_reg_write(CANbus, MCP2515_RXF3EID8, (filterID>>8) & 0xFF );
 1331               		.loc 1 215 59 is_stmt 0 view .LVU263
 1332 01c0 B701      		movw r22,r14
 1333 01c2 A601      		movw r20,r12
 1334 01c4 BDE0      		ldi r27,13
 1335               		1:
 1336 01c6 7695      		lsr r23
 1337 01c8 6795      		ror r22
 1338 01ca 5795      		ror r21
 1339 01cc 4795      		ror r20
 1340 01ce BA95      		dec r27
 1341 01d0 01F4      		brne 1b
 215:utils/MCP2515.c **** 			MCP2515_reg_write(CANbus, MCP2515_RXF3EID8, (filterID>>8) & 0xFF );
 1342               		.loc 1 215 65 view .LVU264
 1343 01d2 407E      		andi r20,lo8(-32)
 215:utils/MCP2515.c **** 			MCP2515_reg_write(CANbus, MCP2515_RXF3EID8, (filterID>>8) & 0xFF );
 1344               		.loc 1 215 89 view .LVU265
 1345 01d4 8E2D      		mov r24,r14
 1346 01d6 8370      		andi r24,lo8(3)
 215:utils/MCP2515.c **** 			MCP2515_reg_write(CANbus, MCP2515_RXF3EID8, (filterID>>8) & 0xFF );
 1347               		.loc 1 215 71 view .LVU266
 1348 01d8 482B      		or r20,r24
 215:utils/MCP2515.c **** 			MCP2515_reg_write(CANbus, MCP2515_RXF3EID8, (filterID>>8) & 0xFF );
 1349               		.loc 1 215 4 view .LVU267
 1350 01da 4860      		ori r20,lo8(8)
 1351 01dc 61E1      		ldi r22,lo8(17)
 1352 01de 8C2F      		mov r24,r28
 1353 01e0 0E94 0000 		call MCP2515_reg_write
 1354               	.LVL127:
 216:utils/MCP2515.c **** 			MCP2515_reg_write(CANbus, MCP2515_RXF3EID0, filterID & 0xFF );
 1355               		.loc 1 216 4 is_stmt 1 view .LVU268
 216:utils/MCP2515.c **** 			MCP2515_reg_write(CANbus, MCP2515_RXF3EID0, filterID & 0xFF );
 1356               		.loc 1 216 57 is_stmt 0 view .LVU269
 1357 01e4 7727      		clr r23
 1358 01e6 6F2D      		mov r22,r15
 1359 01e8 5E2D      		mov r21,r14
 1360 01ea 4D2D      		mov r20,r13
 216:utils/MCP2515.c **** 			MCP2515_reg_write(CANbus, MCP2515_RXF3EID0, filterID & 0xFF );
 1361               		.loc 1 216 4 view .LVU270
 1362 01ec 62E1      		ldi r22,lo8(18)
 1363 01ee 8C2F      		mov r24,r28
 1364 01f0 0E94 0000 		call MCP2515_reg_write
 1365               	.LVL128:
 217:utils/MCP2515.c **** 		case 4:
 1366               		.loc 1 217 4 is_stmt 1 view .LVU271
 1367 01f4 4C2D      		mov r20,r12
 1368 01f6 63E1      		ldi r22,lo8(19)
 1369 01f8 8C2F      		mov r24,r28
 1370 01fa 0E94 0000 		call MCP2515_reg_write
 1371               	.LVL129:
 1372               	.L46:
 219:utils/MCP2515.c **** 			MCP2515_reg_write(CANbus, MCP2515_RXF4SIDL, (((filterID>>13) & 224)| ((filterID>>16) & 3) | ((1<
 1373               		.loc 1 219 4 view .LVU272
 219:utils/MCP2515.c **** 			MCP2515_reg_write(CANbus, MCP2515_RXF4SIDL, (((filterID>>13) & 224)| ((filterID>>16) & 3) | ((1<
 1374               		.loc 1 219 57 is_stmt 0 view .LVU273
 1375 01fe B701      		movw r22,r14
 1376 0200 A601      		movw r20,r12
 1377 0202 35E1      		ldi r19,21
 1378               		1:
 1379 0204 7695      		lsr r23
 1380 0206 6795      		ror r22
 1381 0208 5795      		ror r21
 1382 020a 4795      		ror r20
 1383 020c 3A95      		dec r19
 1384 020e 01F4      		brne 1b
 219:utils/MCP2515.c **** 			MCP2515_reg_write(CANbus, MCP2515_RXF4SIDL, (((filterID>>13) & 224)| ((filterID>>16) & 3) | ((1<
 1385               		.loc 1 219 4 view .LVU274
 1386 0210 64E1      		ldi r22,lo8(20)
 1387 0212 8C2F      		mov r24,r28
 1388 0214 0E94 0000 		call MCP2515_reg_write
 1389               	.LVL130:
 220:utils/MCP2515.c **** 			MCP2515_reg_write(CANbus, MCP2515_RXF4EID8, (filterID>>8) & 0xFF );
 1390               		.loc 1 220 4 is_stmt 1 view .LVU275
 220:utils/MCP2515.c **** 			MCP2515_reg_write(CANbus, MCP2515_RXF4EID8, (filterID>>8) & 0xFF );
 1391               		.loc 1 220 59 is_stmt 0 view .LVU276
 1392 0218 B701      		movw r22,r14
 1393 021a A601      		movw r20,r12
 1394 021c EDE0      		ldi r30,13
 1395               		1:
 1396 021e 7695      		lsr r23
 1397 0220 6795      		ror r22
 1398 0222 5795      		ror r21
 1399 0224 4795      		ror r20
 1400 0226 EA95      		dec r30
 1401 0228 01F4      		brne 1b
 220:utils/MCP2515.c **** 			MCP2515_reg_write(CANbus, MCP2515_RXF4EID8, (filterID>>8) & 0xFF );
 1402               		.loc 1 220 65 view .LVU277
 1403 022a 407E      		andi r20,lo8(-32)
 220:utils/MCP2515.c **** 			MCP2515_reg_write(CANbus, MCP2515_RXF4EID8, (filterID>>8) & 0xFF );
 1404               		.loc 1 220 89 view .LVU278
 1405 022c 8E2D      		mov r24,r14
 1406 022e 8370      		andi r24,lo8(3)
 220:utils/MCP2515.c **** 			MCP2515_reg_write(CANbus, MCP2515_RXF4EID8, (filterID>>8) & 0xFF );
 1407               		.loc 1 220 71 view .LVU279
 1408 0230 482B      		or r20,r24
 220:utils/MCP2515.c **** 			MCP2515_reg_write(CANbus, MCP2515_RXF4EID8, (filterID>>8) & 0xFF );
 1409               		.loc 1 220 4 view .LVU280
 1410 0232 4860      		ori r20,lo8(8)
 1411 0234 65E1      		ldi r22,lo8(21)
 1412 0236 8C2F      		mov r24,r28
 1413 0238 0E94 0000 		call MCP2515_reg_write
 1414               	.LVL131:
 221:utils/MCP2515.c **** 			MCP2515_reg_write(CANbus, MCP2515_RXF4EID0, filterID & 0xFF );
 1415               		.loc 1 221 4 is_stmt 1 view .LVU281
 221:utils/MCP2515.c **** 			MCP2515_reg_write(CANbus, MCP2515_RXF4EID0, filterID & 0xFF );
 1416               		.loc 1 221 57 is_stmt 0 view .LVU282
 1417 023c 7727      		clr r23
 1418 023e 6F2D      		mov r22,r15
 1419 0240 5E2D      		mov r21,r14
 1420 0242 4D2D      		mov r20,r13
 221:utils/MCP2515.c **** 			MCP2515_reg_write(CANbus, MCP2515_RXF4EID0, filterID & 0xFF );
 1421               		.loc 1 221 4 view .LVU283
 1422 0244 66E1      		ldi r22,lo8(22)
 1423 0246 8C2F      		mov r24,r28
 1424 0248 0E94 0000 		call MCP2515_reg_write
 1425               	.LVL132:
 222:utils/MCP2515.c **** 		case 5:
 1426               		.loc 1 222 4 is_stmt 1 view .LVU284
 1427 024c 4C2D      		mov r20,r12
 1428 024e 67E1      		ldi r22,lo8(23)
 1429 0250 8C2F      		mov r24,r28
 1430 0252 0E94 0000 		call MCP2515_reg_write
 1431               	.LVL133:
 1432 0256 00C0      		rjmp .L48
 1433               		.cfi_endproc
 1434               	.LFE11:
 1436               		.section	.text.MCP2515_RXInit,"ax",@progbits
 1437               	.global	MCP2515_RXInit
 1439               	MCP2515_RXInit:
 1440               	.LVL134:
 1441               	.LFB12:
 232:utils/MCP2515.c **** 
 233:utils/MCP2515.c **** uint8_t MCP2515_RXInit(uint8_t CANbus, int8_t mob, uint32_t IDmsk)	//write IDmsk 0 if you do not wi
 234:utils/MCP2515.c **** {
 1442               		.loc 1 234 1 view -0
 1443               		.cfi_startproc
 1444               		.loc 1 234 1 is_stmt 0 view .LVU286
 1445 0000 CF92      		push r12
 1446               	.LCFI42:
 1447               		.cfi_def_cfa_offset 3
 1448               		.cfi_offset 12, -2
 1449 0002 DF92      		push r13
 1450               	.LCFI43:
 1451               		.cfi_def_cfa_offset 4
 1452               		.cfi_offset 13, -3
 1453 0004 EF92      		push r14
 1454               	.LCFI44:
 1455               		.cfi_def_cfa_offset 5
 1456               		.cfi_offset 14, -4
 1457 0006 FF92      		push r15
 1458               	.LCFI45:
 1459               		.cfi_def_cfa_offset 6
 1460               		.cfi_offset 15, -5
 1461 0008 CF93      		push r28
 1462               	.LCFI46:
 1463               		.cfi_def_cfa_offset 7
 1464               		.cfi_offset 28, -6
 1465               	/* prologue: function */
 1466               	/* frame size = 0 */
 1467               	/* stack size = 5 */
 1468               	.L__stack_usage = 5
 1469 000a C82F      		mov r28,r24
 1470 000c 6901      		movw r12,r18
 1471 000e 7A01      		movw r14,r20
 235:utils/MCP2515.c **** 	if (mob > 1)return 0;
 1472               		.loc 1 235 2 is_stmt 1 view .LVU287
 1473               		.loc 1 235 21 is_stmt 0 view .LVU288
 1474 0010 80E0      		ldi r24,0
 1475               	.LVL135:
 1476               		.loc 1 235 5 view .LVU289
 1477 0012 6230      		cpi r22,lo8(2)
 1478 0014 04F4      		brge .L61
 236:utils/MCP2515.c **** 	switch(mob)
 1479               		.loc 1 236 2 is_stmt 1 view .LVU290
 1480 0016 6623      		tst r22
 1481 0018 01F0      		breq .L63
 1482 001a 6130      		cpi r22,lo8(1)
 1483 001c 01F0      		breq .L64
 1484               	.LVL136:
 1485               	.L73:
 237:utils/MCP2515.c **** 	{
 238:utils/MCP2515.c **** 		case 0:
 239:utils/MCP2515.c **** 			MCP2515_reg_write(CANbus, MCP2515_RXM0SIDH, (IDmsk>>21) & 0xFF);	//shift the 32 bit mask into th
 240:utils/MCP2515.c **** 			MCP2515_reg_write(CANbus, MCP2515_RXM0SIDL, (((IDmsk>>13) & 224)| ((IDmsk>>16) & 3)));
 241:utils/MCP2515.c **** 			MCP2515_reg_write(CANbus, MCP2515_RXM0EID8, (IDmsk>>8) & 0xFF );
 242:utils/MCP2515.c **** 			MCP2515_reg_write(CANbus, MCP2515_RXM0EID0, IDmsk & 0xFF );
 243:utils/MCP2515.c **** 			if(IDmsk) MCP2515_reg_write(CANbus, MCP2515_RXB0CTRL, 0b00000100);	//Enable reception using mask
 244:utils/MCP2515.c **** 			else MCP2515_reg_write(CANbus, MCP2515_RXB0CTRL, 0b01100100);		//Enable reception without masks 
 245:utils/MCP2515.c **** 		case 1:
 246:utils/MCP2515.c **** 			MCP2515_reg_write(CANbus, MCP2515_RXM1SIDH, (IDmsk>>21) & 0xFF);	//shift the 32 bit mask into th
 247:utils/MCP2515.c **** 			MCP2515_reg_write(CANbus, MCP2515_RXM1SIDL, (((IDmsk>>13) & 224)| ((IDmsk>>16) & 3)));
 248:utils/MCP2515.c **** 			MCP2515_reg_write(CANbus, MCP2515_RXM1EID8, (IDmsk>>8) & 0xFF );
 249:utils/MCP2515.c **** 			MCP2515_reg_write(CANbus, MCP2515_RXM1EID0, IDmsk & 0xFF );
 250:utils/MCP2515.c **** 			if(IDmsk) MCP2515_reg_write(CANbus, MCP2515_RXB1CTRL, 0b00000000);	//Enable reception using mask
 251:utils/MCP2515.c **** 			else MCP2515_reg_write(CANbus, MCP2515_RXB1CTRL, 0b01100000);		//Enable reception without masks 
 252:utils/MCP2515.c **** 	}	
 253:utils/MCP2515.c **** 	return 1;
 1486               		.loc 1 253 9 is_stmt 0 view .LVU291
 1487 001e 81E0      		ldi r24,lo8(1)
 1488               	.L61:
 1489               	/* epilogue start */
 254:utils/MCP2515.c **** }
 1490               		.loc 1 254 1 view .LVU292
 1491 0020 CF91      		pop r28
 1492               	.LVL137:
 1493               		.loc 1 254 1 view .LVU293
 1494 0022 FF90      		pop r15
 1495 0024 EF90      		pop r14
 1496 0026 DF90      		pop r13
 1497 0028 CF90      		pop r12
 1498 002a 0895      		ret
 1499               	.LVL138:
 1500               	.L63:
 239:utils/MCP2515.c **** 			MCP2515_reg_write(CANbus, MCP2515_RXM0SIDL, (((IDmsk>>13) & 224)| ((IDmsk>>16) & 3)));
 1501               		.loc 1 239 4 is_stmt 1 view .LVU294
 239:utils/MCP2515.c **** 			MCP2515_reg_write(CANbus, MCP2515_RXM0SIDL, (((IDmsk>>13) & 224)| ((IDmsk>>16) & 3)));
 1502               		.loc 1 239 54 is_stmt 0 view .LVU295
 1503 002c BA01      		movw r22,r20
 1504               	.LVL139:
 239:utils/MCP2515.c **** 			MCP2515_reg_write(CANbus, MCP2515_RXM0SIDL, (((IDmsk>>13) & 224)| ((IDmsk>>16) & 3)));
 1505               		.loc 1 239 54 view .LVU296
 1506 002e A901      		movw r20,r18
 1507 0030 35E1      		ldi r19,21
 1508               		1:
 1509 0032 7695      		lsr r23
 1510 0034 6795      		ror r22
 1511 0036 5795      		ror r21
 1512 0038 4795      		ror r20
 1513 003a 3A95      		dec r19
 1514 003c 01F4      		brne 1b
 239:utils/MCP2515.c **** 			MCP2515_reg_write(CANbus, MCP2515_RXM0SIDL, (((IDmsk>>13) & 224)| ((IDmsk>>16) & 3)));
 1515               		.loc 1 239 4 view .LVU297
 1516 003e 60E2      		ldi r22,lo8(32)
 1517 0040 8C2F      		mov r24,r28
 1518 0042 0E94 0000 		call MCP2515_reg_write
 1519               	.LVL140:
 240:utils/MCP2515.c **** 			MCP2515_reg_write(CANbus, MCP2515_RXM0EID8, (IDmsk>>8) & 0xFF );
 1520               		.loc 1 240 4 is_stmt 1 view .LVU298
 240:utils/MCP2515.c **** 			MCP2515_reg_write(CANbus, MCP2515_RXM0EID8, (IDmsk>>8) & 0xFF );
 1521               		.loc 1 240 56 is_stmt 0 view .LVU299
 1522 0046 B701      		movw r22,r14
 1523 0048 A601      		movw r20,r12
 1524 004a EDE0      		ldi r30,13
 1525               		1:
 1526 004c 7695      		lsr r23
 1527 004e 6795      		ror r22
 1528 0050 5795      		ror r21
 1529 0052 4795      		ror r20
 1530 0054 EA95      		dec r30
 1531 0056 01F4      		brne 1b
 240:utils/MCP2515.c **** 			MCP2515_reg_write(CANbus, MCP2515_RXM0EID8, (IDmsk>>8) & 0xFF );
 1532               		.loc 1 240 62 view .LVU300
 1533 0058 407E      		andi r20,lo8(-32)
 240:utils/MCP2515.c **** 			MCP2515_reg_write(CANbus, MCP2515_RXM0EID8, (IDmsk>>8) & 0xFF );
 1534               		.loc 1 240 83 view .LVU301
 1535 005a 8E2D      		mov r24,r14
 1536 005c 8370      		andi r24,lo8(3)
 240:utils/MCP2515.c **** 			MCP2515_reg_write(CANbus, MCP2515_RXM0EID8, (IDmsk>>8) & 0xFF );
 1537               		.loc 1 240 4 view .LVU302
 1538 005e 482B      		or r20,r24
 1539 0060 61E2      		ldi r22,lo8(33)
 1540 0062 8C2F      		mov r24,r28
 1541 0064 0E94 0000 		call MCP2515_reg_write
 1542               	.LVL141:
 241:utils/MCP2515.c **** 			MCP2515_reg_write(CANbus, MCP2515_RXM0EID0, IDmsk & 0xFF );
 1543               		.loc 1 241 4 is_stmt 1 view .LVU303
 241:utils/MCP2515.c **** 			MCP2515_reg_write(CANbus, MCP2515_RXM0EID0, IDmsk & 0xFF );
 1544               		.loc 1 241 54 is_stmt 0 view .LVU304
 1545 0068 7727      		clr r23
 1546 006a 6F2D      		mov r22,r15
 1547 006c 5E2D      		mov r21,r14
 1548 006e 4D2D      		mov r20,r13
 241:utils/MCP2515.c **** 			MCP2515_reg_write(CANbus, MCP2515_RXM0EID0, IDmsk & 0xFF );
 1549               		.loc 1 241 4 view .LVU305
 1550 0070 62E2      		ldi r22,lo8(34)
 1551 0072 8C2F      		mov r24,r28
 1552 0074 0E94 0000 		call MCP2515_reg_write
 1553               	.LVL142:
 242:utils/MCP2515.c **** 			if(IDmsk) MCP2515_reg_write(CANbus, MCP2515_RXB0CTRL, 0b00000100);	//Enable reception using mask
 1554               		.loc 1 242 4 is_stmt 1 view .LVU306
 1555 0078 4C2D      		mov r20,r12
 1556 007a 63E2      		ldi r22,lo8(35)
 1557 007c 8C2F      		mov r24,r28
 1558 007e 0E94 0000 		call MCP2515_reg_write
 1559               	.LVL143:
 243:utils/MCP2515.c **** 			else MCP2515_reg_write(CANbus, MCP2515_RXB0CTRL, 0b01100100);		//Enable reception without masks 
 1560               		.loc 1 243 4 view .LVU307
 243:utils/MCP2515.c **** 			else MCP2515_reg_write(CANbus, MCP2515_RXB0CTRL, 0b01100100);		//Enable reception without masks 
 1561               		.loc 1 243 14 is_stmt 0 view .LVU308
 1562 0082 44E0      		ldi r20,lo8(4)
 243:utils/MCP2515.c **** 			else MCP2515_reg_write(CANbus, MCP2515_RXB0CTRL, 0b01100100);		//Enable reception without masks 
 1563               		.loc 1 243 6 view .LVU309
 1564 0084 C114      		cp r12,__zero_reg__
 1565 0086 D104      		cpc r13,__zero_reg__
 1566 0088 E104      		cpc r14,__zero_reg__
 1567 008a F104      		cpc r15,__zero_reg__
 1568 008c 01F4      		brne .L71
 244:utils/MCP2515.c **** 		case 1:
 1569               		.loc 1 244 9 is_stmt 1 view .LVU310
 1570 008e 44E6      		ldi r20,lo8(100)
 1571               	.L71:
 1572 0090 60E6      		ldi r22,lo8(96)
 1573 0092 8C2F      		mov r24,r28
 1574 0094 0E94 0000 		call MCP2515_reg_write
 1575               	.LVL144:
 1576               	.L64:
 246:utils/MCP2515.c **** 			MCP2515_reg_write(CANbus, MCP2515_RXM1SIDL, (((IDmsk>>13) & 224)| ((IDmsk>>16) & 3)));
 1577               		.loc 1 246 4 view .LVU311
 246:utils/MCP2515.c **** 			MCP2515_reg_write(CANbus, MCP2515_RXM1SIDL, (((IDmsk>>13) & 224)| ((IDmsk>>16) & 3)));
 1578               		.loc 1 246 54 is_stmt 0 view .LVU312
 1579 0098 B701      		movw r22,r14
 1580 009a A601      		movw r20,r12
 1581 009c 85E1      		ldi r24,21
 1582               		1:
 1583 009e 7695      		lsr r23
 1584 00a0 6795      		ror r22
 1585 00a2 5795      		ror r21
 1586 00a4 4795      		ror r20
 1587 00a6 8A95      		dec r24
 1588 00a8 01F4      		brne 1b
 246:utils/MCP2515.c **** 			MCP2515_reg_write(CANbus, MCP2515_RXM1SIDL, (((IDmsk>>13) & 224)| ((IDmsk>>16) & 3)));
 1589               		.loc 1 246 4 view .LVU313
 1590 00aa 64E2      		ldi r22,lo8(36)
 1591 00ac 8C2F      		mov r24,r28
 1592 00ae 0E94 0000 		call MCP2515_reg_write
 1593               	.LVL145:
 247:utils/MCP2515.c **** 			MCP2515_reg_write(CANbus, MCP2515_RXM1EID8, (IDmsk>>8) & 0xFF );
 1594               		.loc 1 247 4 is_stmt 1 view .LVU314
 247:utils/MCP2515.c **** 			MCP2515_reg_write(CANbus, MCP2515_RXM1EID8, (IDmsk>>8) & 0xFF );
 1595               		.loc 1 247 56 is_stmt 0 view .LVU315
 1596 00b2 B701      		movw r22,r14
 1597 00b4 A601      		movw r20,r12
 1598 00b6 9DE0      		ldi r25,13
 1599               		1:
 1600 00b8 7695      		lsr r23
 1601 00ba 6795      		ror r22
 1602 00bc 5795      		ror r21
 1603 00be 4795      		ror r20
 1604 00c0 9A95      		dec r25
 1605 00c2 01F4      		brne 1b
 247:utils/MCP2515.c **** 			MCP2515_reg_write(CANbus, MCP2515_RXM1EID8, (IDmsk>>8) & 0xFF );
 1606               		.loc 1 247 62 view .LVU316
 1607 00c4 407E      		andi r20,lo8(-32)
 247:utils/MCP2515.c **** 			MCP2515_reg_write(CANbus, MCP2515_RXM1EID8, (IDmsk>>8) & 0xFF );
 1608               		.loc 1 247 83 view .LVU317
 1609 00c6 8E2D      		mov r24,r14
 1610 00c8 8370      		andi r24,lo8(3)
 247:utils/MCP2515.c **** 			MCP2515_reg_write(CANbus, MCP2515_RXM1EID8, (IDmsk>>8) & 0xFF );
 1611               		.loc 1 247 4 view .LVU318
 1612 00ca 482B      		or r20,r24
 1613 00cc 65E2      		ldi r22,lo8(37)
 1614 00ce 8C2F      		mov r24,r28
 1615 00d0 0E94 0000 		call MCP2515_reg_write
 1616               	.LVL146:
 248:utils/MCP2515.c **** 			MCP2515_reg_write(CANbus, MCP2515_RXM1EID0, IDmsk & 0xFF );
 1617               		.loc 1 248 4 is_stmt 1 view .LVU319
 248:utils/MCP2515.c **** 			MCP2515_reg_write(CANbus, MCP2515_RXM1EID0, IDmsk & 0xFF );
 1618               		.loc 1 248 54 is_stmt 0 view .LVU320
 1619 00d4 7727      		clr r23
 1620 00d6 6F2D      		mov r22,r15
 1621 00d8 5E2D      		mov r21,r14
 1622 00da 4D2D      		mov r20,r13
 248:utils/MCP2515.c **** 			MCP2515_reg_write(CANbus, MCP2515_RXM1EID0, IDmsk & 0xFF );
 1623               		.loc 1 248 4 view .LVU321
 1624 00dc 66E2      		ldi r22,lo8(38)
 1625 00de 8C2F      		mov r24,r28
 1626 00e0 0E94 0000 		call MCP2515_reg_write
 1627               	.LVL147:
 249:utils/MCP2515.c **** 			if(IDmsk) MCP2515_reg_write(CANbus, MCP2515_RXB1CTRL, 0b00000000);	//Enable reception using mask
 1628               		.loc 1 249 4 is_stmt 1 view .LVU322
 1629 00e4 4C2D      		mov r20,r12
 1630 00e6 67E2      		ldi r22,lo8(39)
 1631 00e8 8C2F      		mov r24,r28
 1632 00ea 0E94 0000 		call MCP2515_reg_write
 1633               	.LVL148:
 250:utils/MCP2515.c **** 			else MCP2515_reg_write(CANbus, MCP2515_RXB1CTRL, 0b01100000);		//Enable reception without masks 
 1634               		.loc 1 250 4 view .LVU323
 250:utils/MCP2515.c **** 			else MCP2515_reg_write(CANbus, MCP2515_RXB1CTRL, 0b01100000);		//Enable reception without masks 
 1635               		.loc 1 250 14 is_stmt 0 view .LVU324
 1636 00ee 40E0      		ldi r20,0
 250:utils/MCP2515.c **** 			else MCP2515_reg_write(CANbus, MCP2515_RXB1CTRL, 0b01100000);		//Enable reception without masks 
 1637               		.loc 1 250 6 view .LVU325
 1638 00f0 CD28      		or r12,r13
 1639 00f2 CE28      		or r12,r14
 1640 00f4 CF28      		or r12,r15
 1641 00f6 01F4      		brne .L72
 251:utils/MCP2515.c **** 	}	
 1642               		.loc 1 251 9 is_stmt 1 view .LVU326
 1643 00f8 40E6      		ldi r20,lo8(96)
 1644               	.L72:
 1645 00fa 60E7      		ldi r22,lo8(112)
 1646 00fc 8C2F      		mov r24,r28
 1647 00fe 0E94 0000 		call MCP2515_reg_write
 1648               	.LVL149:
 1649 0102 00C0      		rjmp .L73
 1650               		.cfi_endproc
 1651               	.LFE12:
 1653               		.section	.text.MCP2515_TX,"ax",@progbits
 1654               	.global	MCP2515_TX
 1656               	MCP2515_TX:
 1657               	.LVL150:
 1658               	.LFB13:
 255:utils/MCP2515.c **** 
 256:utils/MCP2515.c **** void MCP2515_TX(uint8_t CANbus, int8_t mob, uint8_t numBytes, uint8_t * data, uint32_t ID)
 257:utils/MCP2515.c **** {
 1659               		.loc 1 257 1 view -0
 1660               		.cfi_startproc
 1661               		.loc 1 257 1 is_stmt 0 view .LVU328
 1662 0000 9F92      		push r9
 1663               	.LCFI47:
 1664               		.cfi_def_cfa_offset 3
 1665               		.cfi_offset 9, -2
 1666 0002 AF92      		push r10
 1667               	.LCFI48:
 1668               		.cfi_def_cfa_offset 4
 1669               		.cfi_offset 10, -3
 1670 0004 BF92      		push r11
 1671               	.LCFI49:
 1672               		.cfi_def_cfa_offset 5
 1673               		.cfi_offset 11, -4
 1674 0006 CF92      		push r12
 1675               	.LCFI50:
 1676               		.cfi_def_cfa_offset 6
 1677               		.cfi_offset 12, -5
 1678 0008 DF92      		push r13
 1679               	.LCFI51:
 1680               		.cfi_def_cfa_offset 7
 1681               		.cfi_offset 13, -6
 1682 000a EF92      		push r14
 1683               	.LCFI52:
 1684               		.cfi_def_cfa_offset 8
 1685               		.cfi_offset 14, -7
 1686 000c FF92      		push r15
 1687               	.LCFI53:
 1688               		.cfi_def_cfa_offset 9
 1689               		.cfi_offset 15, -8
 1690 000e 0F93      		push r16
 1691               	.LCFI54:
 1692               		.cfi_def_cfa_offset 10
 1693               		.cfi_offset 16, -9
 1694 0010 1F93      		push r17
 1695               	.LCFI55:
 1696               		.cfi_def_cfa_offset 11
 1697               		.cfi_offset 17, -10
 1698 0012 CF93      		push r28
 1699               	.LCFI56:
 1700               		.cfi_def_cfa_offset 12
 1701               		.cfi_offset 28, -11
 1702 0014 DF93      		push r29
 1703               	.LCFI57:
 1704               		.cfi_def_cfa_offset 13
 1705               		.cfi_offset 29, -12
 1706               	/* prologue: function */
 1707               	/* frame size = 0 */
 1708               	/* stack size = 11 */
 1709               	.L__stack_usage = 11
 1710 0016 D82F      		mov r29,r24
 1711 0018 C62F      		mov r28,r22
 1712 001a B42E      		mov r11,r20
 1713 001c 922E      		mov r9,r18
 1714 001e A32E      		mov r10,r19
 1715 0020 6701      		movw r12,r14
 1716 0022 7801      		movw r14,r16
 1717               	.LVL151:
 258:utils/MCP2515.c **** 	if(mob == 0)return;						//no free mob or invalid mob
 1718               		.loc 1 258 2 is_stmt 1 view .LVU329
 1719               		.loc 1 258 4 is_stmt 0 view .LVU330
 1720 0024 6623      		tst r22
 1721 0026 01F4      		brne .+2
 1722 0028 00C0      		rjmp .L74
 1723               	.LVL152:
 1724               	.LBB23:
 1725               	.LBB24:
 259:utils/MCP2515.c **** 	MCP2515_reg_write(CANbus, mob, 0x03);			//we shall set this to the highest priority so that it sen
 1726               		.loc 1 259 2 is_stmt 1 view .LVU331
 1727 002a 162F      		mov r17,r22
 1728 002c 43E0      		ldi r20,lo8(3)
 1729               	.LVL153:
 1730               		.loc 1 259 2 is_stmt 0 view .LVU332
 1731 002e 0E94 0000 		call MCP2515_reg_write
 1732               	.LVL154:
 260:utils/MCP2515.c **** 	MCP2515_reg_write(CANbus, mob+1, (ID>>21) & 0xFF);	//shift the ID data to fill the respective MCP 
 1733               		.loc 1 260 2 is_stmt 1 view .LVU333
 1734               		.loc 1 260 38 is_stmt 0 view .LVU334
 1735 0032 B701      		movw r22,r14
 1736 0034 A601      		movw r20,r12
 1737 0036 85E1      		ldi r24,21
 1738               		1:
 1739 0038 7695      		lsr r23
 1740 003a 6795      		ror r22
 1741 003c 5795      		ror r21
 1742 003e 4795      		ror r20
 1743 0040 8A95      		dec r24
 1744 0042 01F4      		brne 1b
 1745               		.loc 1 260 2 view .LVU335
 1746 0044 61E0      		ldi r22,lo8(1)
 1747 0046 6C0F      		add r22,r28
 1748 0048 8D2F      		mov r24,r29
 1749 004a 0E94 0000 		call MCP2515_reg_write
 1750               	.LVL155:
 261:utils/MCP2515.c **** 	MCP2515_reg_write(CANbus, mob+2, (((ID>>13) & 224)| ((ID>>16) & 3) | ((1<<3) & 0xFF)));	//set the 
 1751               		.loc 1 261 2 is_stmt 1 view .LVU336
 1752               		.loc 1 261 40 is_stmt 0 view .LVU337
 1753 004e B701      		movw r22,r14
 1754 0050 A601      		movw r20,r12
 1755 0052 9DE0      		ldi r25,13
 1756               		1:
 1757 0054 7695      		lsr r23
 1758 0056 6795      		ror r22
 1759 0058 5795      		ror r21
 1760 005a 4795      		ror r20
 1761 005c 9A95      		dec r25
 1762 005e 01F4      		brne 1b
 1763               		.loc 1 261 46 view .LVU338
 1764 0060 407E      		andi r20,lo8(-32)
 1765               		.loc 1 261 64 view .LVU339
 1766 0062 8E2D      		mov r24,r14
 1767 0064 8370      		andi r24,lo8(3)
 1768               		.loc 1 261 52 view .LVU340
 1769 0066 482B      		or r20,r24
 1770               		.loc 1 261 2 view .LVU341
 1771 0068 4860      		ori r20,lo8(8)
 1772 006a 62E0      		ldi r22,lo8(2)
 1773 006c 6C0F      		add r22,r28
 1774 006e 8D2F      		mov r24,r29
 1775 0070 0E94 0000 		call MCP2515_reg_write
 1776               	.LVL156:
 262:utils/MCP2515.c **** 	MCP2515_reg_write(CANbus, mob+3, (ID>>8) & 0xFF );
 1777               		.loc 1 262 2 is_stmt 1 view .LVU342
 1778               		.loc 1 262 38 is_stmt 0 view .LVU343
 1779 0074 7727      		clr r23
 1780 0076 6F2D      		mov r22,r15
 1781 0078 5E2D      		mov r21,r14
 1782 007a 4D2D      		mov r20,r13
 1783               		.loc 1 262 2 view .LVU344
 1784 007c 63E0      		ldi r22,lo8(3)
 1785 007e 6C0F      		add r22,r28
 1786 0080 8D2F      		mov r24,r29
 1787 0082 0E94 0000 		call MCP2515_reg_write
 1788               	.LVL157:
 263:utils/MCP2515.c **** 	MCP2515_reg_write(CANbus, mob+4, ID & 0xFF );
 1789               		.loc 1 263 2 is_stmt 1 view .LVU345
 1790 0086 4C2D      		mov r20,r12
 1791 0088 64E0      		ldi r22,lo8(4)
 1792 008a 6C0F      		add r22,r28
 1793 008c 8D2F      		mov r24,r29
 1794 008e 0E94 0000 		call MCP2515_reg_write
 1795               	.LVL158:
 264:utils/MCP2515.c **** 	MCP2515_reg_write(CANbus, mob+5, numBytes);		//set how many bytes we wish to send
 1796               		.loc 1 264 2 view .LVU346
 1797 0092 4B2D      		mov r20,r11
 1798 0094 65E0      		ldi r22,lo8(5)
 1799 0096 6C0F      		add r22,r28
 1800 0098 8D2F      		mov r24,r29
 1801 009a 0E94 0000 		call MCP2515_reg_write
 1802               	.LVL159:
 265:utils/MCP2515.c **** 	//MCP2515_reg_write(CANbus, mob, 0x03);
 266:utils/MCP2515.c **** 	//MCP2515_reg_write(CANbus, mob+1, 0);
 267:utils/MCP2515.c **** 	//MCP2515_reg_write(CANbus, mob+2, (1<<3));
 268:utils/MCP2515.c **** 	//MCP2515_reg_write(CANbus, mob+3, 0);
 269:utils/MCP2515.c **** 	//MCP2515_reg_write(CANbus, mob+4, 0);
 270:utils/MCP2515.c **** 	//MCP2515_reg_write(CANbus, mob+5, 0);
 271:utils/MCP2515.c **** 	
 272:utils/MCP2515.c **** 	for (uint8_t byteCount = 0; byteCount < numBytes; byteCount++)
 1803               		.loc 1 272 2 view .LVU347
 1804               	.LBB25:
 1805               		.loc 1 272 7 view .LVU348
 1806               		.loc 1 272 7 is_stmt 0 view .LVU349
 1807 009e E92C      		mov r14,r9
 1808 00a0 FA2C      		mov r15,r10
 1809 00a2 BC0E      		add r11,r28
 1810               	.LVL160:
 1811               	.L76:
 1812               		.loc 1 272 2 view .LVU350
 1813 00a4 1B11      		cpse r17,r11
 1814 00a6 00C0      		rjmp .L77
 1815               	.LBE25:
 273:utils/MCP2515.c **** 	{
 274:utils/MCP2515.c **** 		MCP2515_reg_write(CANbus, mob+6+byteCount, *(data+byteCount));	//fill the data bytes register.
 275:utils/MCP2515.c **** 	}
 276:utils/MCP2515.c **** 	MCP2515_instruction(CANbus, 128|(1<<((mob>>4) - 3)));		//creates an instruction that matches the m
 1816               		.loc 1 276 2 is_stmt 1 view .LVU351
 1817               		.loc 1 276 43 is_stmt 0 view .LVU352
 1818 00a8 C595      		asr r28
 1819 00aa C595      		asr r28
 1820 00ac C595      		asr r28
 1821 00ae C595      		asr r28
 1822               	.LVL161:
 1823               		.loc 1 276 48 view .LVU353
 1824 00b0 C350      		subi r28,lo8(-(-3))
 1825               		.loc 1 276 36 view .LVU354
 1826 00b2 61E0      		ldi r22,lo8(1)
 1827 00b4 70E0      		ldi r23,0
 1828 00b6 00C0      		rjmp 2f
 1829               		1:
 1830 00b8 660F      		lsl r22
 1831               		2:
 1832 00ba CA95      		dec r28
 1833 00bc 02F4      		brpl 1b
 1834               		.loc 1 276 33 view .LVU355
 1835 00be 6068      		ori r22,lo8(-128)
 1836               		.loc 1 276 2 view .LVU356
 1837 00c0 8D2F      		mov r24,r29
 1838               	/* epilogue start */
 1839               	.LBE24:
 1840               	.LBE23:
 277:utils/MCP2515.c **** 	//PORTC &= ~(1<<PINC7);		//Drop the TX
 278:utils/MCP2515.c **** 	//_delay_us(50);
 279:utils/MCP2515.c **** 	//PORTC |= (1<<PINC7);		
 280:utils/MCP2515.c **** }
 1841               		.loc 1 280 1 view .LVU357
 1842 00c2 DF91      		pop r29
 1843               	.LVL162:
 1844               		.loc 1 280 1 view .LVU358
 1845 00c4 CF91      		pop r28
 1846 00c6 1F91      		pop r17
 1847               	.LVL163:
 1848               		.loc 1 280 1 view .LVU359
 1849 00c8 0F91      		pop r16
 1850 00ca FF90      		pop r15
 1851 00cc EF90      		pop r14
 1852 00ce DF90      		pop r13
 1853 00d0 CF90      		pop r12
 1854               	.LVL164:
 1855               		.loc 1 280 1 view .LVU360
 1856 00d2 BF90      		pop r11
 1857 00d4 AF90      		pop r10
 1858               	.LVL165:
 1859               		.loc 1 280 1 view .LVU361
 1860 00d6 9F90      		pop r9
 1861               	.LBB28:
 1862               	.LBB27:
 276:utils/MCP2515.c **** 	//PORTC &= ~(1<<PINC7);		//Drop the TX
 1863               		.loc 1 276 2 view .LVU362
 1864 00d8 0C94 0000 		jmp MCP2515_instruction
 1865               	.LVL166:
 1866               	.L77:
 1867               	.LBB26:
 274:utils/MCP2515.c **** 	}
 1868               		.loc 1 274 3 is_stmt 1 view .LVU363
 1869 00dc F701      		movw r30,r14
 1870 00de 4191      		ld r20,Z+
 1871 00e0 7F01      		movw r14,r30
 1872 00e2 66E0      		ldi r22,lo8(6)
 1873 00e4 610F      		add r22,r17
 1874 00e6 8D2F      		mov r24,r29
 1875 00e8 0E94 0000 		call MCP2515_reg_write
 1876               	.LVL167:
 274:utils/MCP2515.c **** 	}
 1877               		.loc 1 274 3 is_stmt 0 view .LVU364
 1878 00ec 1F5F      		subi r17,lo8(-(1))
 1879               	.LVL168:
 274:utils/MCP2515.c **** 	}
 1880               		.loc 1 274 3 view .LVU365
 1881 00ee 00C0      		rjmp .L76
 1882               	.LVL169:
 1883               	.L74:
 1884               	/* epilogue start */
 274:utils/MCP2515.c **** 	}
 1885               		.loc 1 274 3 view .LVU366
 1886               	.LBE26:
 1887               	.LBE27:
 1888               	.LBE28:
 1889               		.loc 1 280 1 view .LVU367
 1890 00f0 DF91      		pop r29
 1891 00f2 CF91      		pop r28
 1892 00f4 1F91      		pop r17
 1893 00f6 0F91      		pop r16
 1894 00f8 FF90      		pop r15
 1895 00fa EF90      		pop r14
 1896 00fc DF90      		pop r13
 1897 00fe CF90      		pop r12
 1898 0100 BF90      		pop r11
 1899               	.LVL170:
 1900               		.loc 1 280 1 view .LVU368
 1901 0102 AF90      		pop r10
 1902 0104 9F90      		pop r9
 1903 0106 0895      		ret
 1904               		.cfi_endproc
 1905               	.LFE13:
 1907               		.section	.text.MCP2515_check_receive_status,"ax",@progbits
 1908               	.global	MCP2515_check_receive_status
 1910               	MCP2515_check_receive_status:
 1911               	.LVL171:
 1912               	.LFB14:
 281:utils/MCP2515.c **** 
 282:utils/MCP2515.c **** 
 283:utils/MCP2515.c **** uint8_t MCP2515_check_receive_status(uint8_t CANbus)
 284:utils/MCP2515.c **** {
 1913               		.loc 1 284 1 is_stmt 1 view -0
 1914               		.cfi_startproc
 1915               		.loc 1 284 1 is_stmt 0 view .LVU370
 1916 0000 CF93      		push r28
 1917               	.LCFI58:
 1918               		.cfi_def_cfa_offset 3
 1919               		.cfi_offset 28, -2
 1920 0002 DF93      		push r29
 1921               	.LCFI59:
 1922               		.cfi_def_cfa_offset 4
 1923               		.cfi_offset 29, -3
 1924               	/* prologue: function */
 1925               	/* frame size = 0 */
 1926               	/* stack size = 2 */
 1927               	.L__stack_usage = 2
 1928 0004 C82F      		mov r28,r24
 285:utils/MCP2515.c **** 	uint8_t status;
 1929               		.loc 1 285 2 is_stmt 1 view .LVU371
 286:utils/MCP2515.c **** 	MCP2515_CS_low(CANbus);			//unset CS so MCP2515 knows we are talking
 1930               		.loc 1 286 2 view .LVU372
 1931 0006 0E94 0000 		call MCP2515_CS_low
 1932               	.LVL172:
 287:utils/MCP2515.c **** 	SPI_send_byte(MCP2515_RXSTATUS);
 1933               		.loc 1 287 2 view .LVU373
 1934 000a 80EB      		ldi r24,lo8(-80)
 1935 000c 0E94 0000 		call SPI_send_byte
 1936               	.LVL173:
 288:utils/MCP2515.c **** 	status = SPI_send_byte(0x00);						//send zeros to get data
 1937               		.loc 1 288 2 view .LVU374
 1938               		.loc 1 288 11 is_stmt 0 view .LVU375
 1939 0010 80E0      		ldi r24,0
 1940 0012 0E94 0000 		call SPI_send_byte
 1941               	.LVL174:
 1942 0016 D82F      		mov r29,r24
 1943               	.LVL175:
 289:utils/MCP2515.c **** 	SPI_send_byte(0x00);							//MCP2515 will repeat the data output, so send another batch of zeros
 1944               		.loc 1 289 2 is_stmt 1 view .LVU376
 1945 0018 80E0      		ldi r24,0
 1946               	.LVL176:
 1947               		.loc 1 289 2 is_stmt 0 view .LVU377
 1948 001a 0E94 0000 		call SPI_send_byte
 1949               	.LVL177:
 290:utils/MCP2515.c **** 	MCP2515_CS_high(CANbus);			//set the CS
 1950               		.loc 1 290 2 is_stmt 1 view .LVU378
 1951 001e 8C2F      		mov r24,r28
 1952 0020 0E94 0000 		call MCP2515_CS_high
 1953               	.LVL178:
 291:utils/MCP2515.c **** 	return status;
 1954               		.loc 1 291 2 view .LVU379
 292:utils/MCP2515.c **** }
 1955               		.loc 1 292 1 is_stmt 0 view .LVU380
 1956 0024 8D2F      		mov r24,r29
 1957               	/* epilogue start */
 1958 0026 DF91      		pop r29
 1959               	.LVL179:
 1960               		.loc 1 292 1 view .LVU381
 1961 0028 CF91      		pop r28
 1962               	.LVL180:
 1963               		.loc 1 292 1 view .LVU382
 1964 002a 0895      		ret
 1965               		.cfi_endproc
 1966               	.LFE14:
 1968               		.section	.text.MCP2515_send_test,"ax",@progbits
 1969               	.global	MCP2515_send_test
 1971               	MCP2515_send_test:
 1972               	.LVL181:
 1973               	.LFB15:
 293:utils/MCP2515.c **** 
 294:utils/MCP2515.c **** uint8_t MCP2515_send_test(uint8_t CANbus)
 295:utils/MCP2515.c **** {
 1974               		.loc 1 295 1 is_stmt 1 view -0
 1975               		.cfi_startproc
 1976               		.loc 1 295 1 is_stmt 0 view .LVU384
 1977 0000 DF92      		push r13
 1978               	.LCFI60:
 1979               		.cfi_def_cfa_offset 3
 1980               		.cfi_offset 13, -2
 1981 0002 EF92      		push r14
 1982               	.LCFI61:
 1983               		.cfi_def_cfa_offset 4
 1984               		.cfi_offset 14, -3
 1985 0004 FF92      		push r15
 1986               	.LCFI62:
 1987               		.cfi_def_cfa_offset 5
 1988               		.cfi_offset 15, -4
 1989 0006 0F93      		push r16
 1990               	.LCFI63:
 1991               		.cfi_def_cfa_offset 6
 1992               		.cfi_offset 16, -5
 1993 0008 1F93      		push r17
 1994               	.LCFI64:
 1995               		.cfi_def_cfa_offset 7
 1996               		.cfi_offset 17, -6
 1997 000a CF93      		push r28
 1998               	.LCFI65:
 1999               		.cfi_def_cfa_offset 8
 2000               		.cfi_offset 28, -7
 2001 000c DF93      		push r29
 2002               	.LCFI66:
 2003               		.cfi_def_cfa_offset 9
 2004               		.cfi_offset 29, -8
 2005 000e 0F92      		push __tmp_reg__
 2006               	.LCFI67:
 2007               		.cfi_def_cfa_offset 10
 2008 0010 CDB7      		in r28,__SP_L__
 2009 0012 DEB7      		in r29,__SP_H__
 2010               	.LCFI68:
 2011               		.cfi_def_cfa_register 28
 2012               	/* prologue: function */
 2013               	/* frame size = 1 */
 2014               	/* stack size = 8 */
 2015               	.L__stack_usage = 8
 2016 0014 D82E      		mov r13,r24
 296:utils/MCP2515.c **** 	uint8_t data = 0x2D;
 2017               		.loc 1 296 2 is_stmt 1 view .LVU385
 2018               		.loc 1 296 10 is_stmt 0 view .LVU386
 2019 0016 8DE2      		ldi r24,lo8(45)
 2020               	.LVL182:
 2021               		.loc 1 296 10 view .LVU387
 2022 0018 8983      		std Y+1,r24
 297:utils/MCP2515.c **** 	uint8_t free_buffer = MCP2515_findFreeTxBuffer(CANbus);						//obtain a free transmit buffer.
 2023               		.loc 1 297 2 is_stmt 1 view .LVU388
 2024               		.loc 1 297 24 is_stmt 0 view .LVU389
 2025 001a 8D2D      		mov r24,r13
 2026 001c 0E94 0000 		call MCP2515_findFreeTxBuffer
 2027               	.LVL183:
 298:utils/MCP2515.c **** 
 299:utils/MCP2515.c **** 	if(free_buffer)
 2028               		.loc 1 299 2 is_stmt 1 view .LVU390
 2029               		.loc 1 299 4 is_stmt 0 view .LVU391
 2030 0020 8823      		tst r24
 2031 0022 01F0      		breq .L79
 300:utils/MCP2515.c **** 	{
 301:utils/MCP2515.c **** 		//flash_LED(1, YELLOW_LED, 50);
 302:utils/MCP2515.c **** 		//MCP2515_tx(AMU,free_buffer,DEVICE_ID,0x00,AUDIT_REQUEST,0,&data);		//send a CAN packet from a f
 303:utils/MCP2515.c **** 		MCP2515_TX(CANbus, free_buffer, 1, &data, ((uint32_t)1<<27));
 2032               		.loc 1 303 3 is_stmt 1 view .LVU392
 2033 0024 E12C      		mov r14,__zero_reg__
 2034 0026 F12C      		mov r15,__zero_reg__
 2035 0028 00E0      		ldi r16,0
 2036 002a 18E0      		ldi r17,lo8(8)
 2037 002c 9E01      		movw r18,r28
 2038 002e 2F5F      		subi r18,-1
 2039 0030 3F4F      		sbci r19,-1
 2040 0032 41E0      		ldi r20,lo8(1)
 2041 0034 682F      		mov r22,r24
 2042 0036 8D2D      		mov r24,r13
 2043               	.LVL184:
 2044               		.loc 1 303 3 is_stmt 0 view .LVU393
 2045 0038 0E94 0000 		call MCP2515_TX
 2046               	.LVL185:
 304:utils/MCP2515.c **** 		return 1;					//return successful
 2047               		.loc 1 304 3 is_stmt 1 view .LVU394
 2048               		.loc 1 304 10 is_stmt 0 view .LVU395
 2049 003c 81E0      		ldi r24,lo8(1)
 2050               	.L79:
 2051               	/* epilogue start */
 305:utils/MCP2515.c **** 	}
 306:utils/MCP2515.c **** 	else
 307:utils/MCP2515.c **** 	{
 308:utils/MCP2515.c **** 		return 0;					//return error, there were no free buffers.
 309:utils/MCP2515.c **** 	}
 310:utils/MCP2515.c **** }...
 2052               		.loc 1 310 1 view .LVU396
 2053 003e 0F90      		pop __tmp_reg__
 2054 0040 DF91      		pop r29
 2055 0042 CF91      		pop r28
 2056 0044 1F91      		pop r17
 2057 0046 0F91      		pop r16
 2058 0048 FF90      		pop r15
 2059 004a EF90      		pop r14
 2060 004c DF90      		pop r13
 2061               	.LVL186:
 2062               		.loc 1 310 1 view .LVU397
 2063 004e 0895      		ret
 2064               		.cfi_endproc
 2065               	.LFE15:
 2067               		.text
 2068               	.Letext0:
 2069               		.file 2 "/usr/local/Cellar/avr-gcc/8.1.0/avr/include/stdint.h"
 2070               		.file 3 "utils/SPI.h"
 2071               		.file 4 "<built-in>"