   1               		.file	"main.c"
   2               	__SP_H__ = 0x3e
   3               	__SP_L__ = 0x3d
   4               	__SREG__ = 0x3f
   5               	__RAMPZ__ = 0x3b
   6               	__tmp_reg__ = 0
   7               	__zero_reg__ = 1
   8               		.text
   9               	.Ltext0:
  10               		.cfi_sections	.debug_frame
  11               		.comm	portKey,1,1
  12               	.global	CanHeartbeatCountInverters
  13               		.section .bss
  16               	CanHeartbeatCountInverters:
  17 0000 00        		.zero	1
  18               	.global	CanHeartbeatCountData
  19               		.data
  22               	CanHeartbeatCountData:
  23 0000 01        		.byte	1
  24               	.global	CanHeartbeatCountPower
  27               	CanHeartbeatCountPower:
  28 0001 02        		.byte	2
  29               	.global	CanHeartbeatErrorInverters
  32               	CanHeartbeatErrorInverters:
  33 0002 64        		.byte	100
  34               	.global	CanHeartbeatErrorData
  37               	CanHeartbeatErrorData:
  38 0003 65        		.byte	101
  39               	.global	CanHeartbeatErrorPower
  42               	CanHeartbeatErrorPower:
  43 0004 66        		.byte	102
  44               	.global	InputPedalThrottleCount
  47               	InputPedalThrottleCount:
  48 0005 03        		.byte	3
  49               	.global	InputPedalBrakeCount
  52               	InputPedalBrakeCount:
  53 0006 04        		.byte	4
  54               	.global	InputTempCount
  57               	InputTempCount:
  58 0007 05        		.byte	5
  59               	.global	CANInputSendTime
  60               		.section .bss
  63               	CANInputSendTime:
  64 0001 00        		.zero	1
  65               	.global	buttonStateDebounceCount
  68               	buttonStateDebounceCount:
  69 0002 00        		.zero	1
  70               	.global	buttonStateLock
  73               	buttonStateLock:
  74 0003 00        		.zero	1
  75               	.global	buttonState
  78               	buttonState:
  79 0004 00        		.zero	1
  80               		.section	.text.startup.main,"ax",@progbits
  81               	.global	main
  83               	main:
  84               	.LFB11:
  85               		.file 1 "main.c"
   1:main.c        **** 
   2:main.c        **** 
   3:main.c        **** #include "main.h"
   4:main.c        **** 
   5:main.c        **** 
   6:main.c        **** uint8_t buttonStateDebounceCount = 0; 
   7:main.c        **** bool buttonStateLock = 0;
   8:main.c        **** bool buttonState = 0;
   9:main.c        **** 
  10:main.c        **** int main(void) {    
  86               		.loc 1 10 16 view -0
  87               		.cfi_startproc
  88               	/* prologue: function */
  89               	/* frame size = 0 */
  90               	/* stack size = 0 */
  91               	.L__stack_usage = 0
  11:main.c        **** 
  12:main.c        ****     // Set Up
  13:main.c        ****     firmware_init();
  92               		.loc 1 13 5 view .LVU1
  93 0000 0E94 0000 		call firmware_init
  94               	.LVL0:
  14:main.c        ****     timer_init();
  95               		.loc 1 14 5 view .LVU2
  96 0004 0E94 0000 		call timer_init
  97               	.LVL1:
  15:main.c        **** 
  16:main.c        ****     // Enable Interupts
  17:main.c        ****     sei();
  98               		.loc 1 17 5 view .LVU3
  99               	/* #APP */
 100               	 ;  17 "main.c" 1
 101 0008 7894      		sei
 102               	 ;  0 "" 2
 103               	/* #NOAPP */
 104               	.L3:
  18:main.c        **** 
  19:main.c        ****     // Main Poll
  20:main.c        ****     // ------------------------------------------------------------------------
  21:main.c        ****     while(1)
 105               		.loc 1 21 5 view .LVU4
  22:main.c        ****     {
  23:main.c        ****         for(long i = 0; i < 600000; i++) {
 106               		.loc 1 23 9 view .LVU5
 107               	.LBB2:
 108               		.loc 1 23 13 view .LVU6
 109               	.LVL2:
 110               		.loc 1 23 13 is_stmt 0 view .LVU7
 111               	.LBE2:
  10:main.c        **** 
 112               		.loc 1 10 16 view .LVU8
 113 000a 80EC      		ldi r24,lo8(-64)
 114 000c 97E2      		ldi r25,lo8(39)
 115 000e A9E0      		ldi r26,lo8(9)
 116 0010 B0E0      		ldi r27,0
 117               	.LVL3:
 118               	.L2:
 119               	.LBB3:
  24:main.c        **** 
  25:main.c        ****         }
 120               		.loc 1 25 9 is_stmt 1 discriminator 3 view .LVU9
 121               		.loc 1 25 9 is_stmt 0 discriminator 3 view .LVU10
 122 0012 0197      		sbiw r24,1
 123 0014 A109      		sbc r26,__zero_reg__
 124 0016 B109      		sbc r27,__zero_reg__
 125               	.LVL4:
  23:main.c        **** 
 126               		.loc 1 23 9 discriminator 3 view .LVU11
 127 0018 01F4      		brne .L2
 128               	.LBE3:
  26:main.c        ****         uart_putc(68);
 129               		.loc 1 26 9 is_stmt 1 view .LVU12
 130 001a 84E4      		ldi r24,lo8(68)
 131               	.LVL5:
 132               		.loc 1 26 9 is_stmt 0 view .LVU13
 133 001c 0E94 0000 		call uart_putc
 134               	.LVL6:
  27:main.c        ****         uart1_putc(68);
 135               		.loc 1 27 9 is_stmt 1 view .LVU14
 136 0020 84E4      		ldi r24,lo8(68)
 137 0022 0E94 0000 		call uart1_putc
 138               	.LVL7:
  23:main.c        **** 
 139               		.loc 1 23 9 is_stmt 0 view .LVU15
 140 0026 00C0      		rjmp .L3
 141               		.cfi_endproc
 142               	.LFE11:
 144               		.section	.text.oneKHzTimer,"ax",@progbits
 145               	.global	oneKHzTimer
 147               	oneKHzTimer:
 148               	.LFB12:
  28:main.c        ****         
  29:main.c        ****     }
  30:main.c        **** }
  31:main.c        **** 
  32:main.c        **** /**
  33:main.c        ****  * @brief Core system's timer, 1ms, core of the sudo-RTOS system
  34:main.c        ****  */
  35:main.c        **** void oneKHzTimer() {
 149               		.loc 1 35 20 is_stmt 1 view -0
 150               		.cfi_startproc
 151               	/* prologue: function */
 152               	/* frame size = 0 */
 153               	/* stack size = 0 */
 154               	.L__stack_usage = 0
  36:main.c        **** 
  37:main.c        ****     // Check the button state
  38:main.c        ****     // -> 50ms Timer / State Change
  39:main.c        ****     // 50ms debounce, IE hold for 50ms and if held, change state
  40:main.c        ****     // ------------------------------------------------------------------------
  41:main.c        ****     // if(PRESSING_BUTTON) // No idea to which PIN set to check
  42:main.c        ****     // {
  43:main.c        ****     //     // Count up 1ms
  44:main.c        ****     //     buttonStateDebounceCount++;
  45:main.c        ****     //     // If 50ms have been counted
  46:main.c        ****     //     if(buttonStateDebounceCount >= 50) 
  47:main.c        ****     //     {
  48:main.c        ****     //         // Lock the state change till un-press of button
  49:main.c        ****     //         buttonStateLock = true;
  50:main.c        ****     //         // 
  51:main.c        ****     //         if(buttonStateDebounceCount > 254) { buttonStateDebounceCount = 50; }
  52:main.c        ****     //         // Triggering every 50ms
  53:main.c        ****     //         buttonState = !buttonState;
  54:main.c        ****     //         led_toggle();
  55:main.c        ****     //     }
  56:main.c        ****     // } 
  57:main.c        ****     // else 
  58:main.c        ****     // {
  59:main.c        ****     //     buttonStateLock = false;
  60:main.c        ****     //     buttonStateDebounceCount = 0;
  61:main.c        ****     // }
  62:main.c        **** 
  63:main.c        ****     // Send CAN heartbeats -> Inverters: 100Hz, Data: 100Hz, Power: 20Hz
  64:main.c        ****     // 100Hz = 1 / 100 = 0.01s = 10ms, 20Hz = 1 / 20 = 0.05s = 50ms
  65:main.c        ****     // ------------------------------------------------------------------------
  66:main.c        ****     // if(CanHeartbeatCountInverters > CAN_HEARTBEAT_TIME_INVERTERS)
  67:main.c        ****     // {
  68:main.c        ****     //     // Reset inverter heartbeat counter
  69:main.c        ****     //     CanHeartbeatCountInverters = 0;
  70:main.c        ****     //     // Send inverter system heartbeat
  71:main.c        ****     //     // CAN_send(MCP2515_CAN1, )
  72:main.c        ****     // }
  73:main.c        ****     // if(CanHeartbeatCountData > CAN_HEARTBEAT_TIME_DATA)
  74:main.c        ****     // {
  75:main.c        ****     //     // Reset data heartbeat counter
  76:main.c        ****     //     CanHeartbeatCountData = 0;
  77:main.c        ****     //     // Send data system heartbeat
  78:main.c        ****     //     // CAN_send(MCP2515_CAN2, )
  79:main.c        ****     // }
  80:main.c        ****     // if(CanHeartbeatCountPower > CAN_HEARTBEAT_TIME_POWER)
  81:main.c        ****     // {
  82:main.c        ****     //     // Reset power heartbeat counter
  83:main.c        ****     //     CanHeartbeatCountPower = 0;
  84:main.c        ****     //     // Send power system heartbeat
  85:main.c        ****     //     // CAN_send(MCP2515_CAN2, )
  86:main.c        ****     // }
  87:main.c        ****     // CanHeartbeatCountInverters++;
  88:main.c        ****     // CanHeartbeatCountData++;
  89:main.c        ****     // CanHeartbeatCountPower++;
  90:main.c        **** 
  91:main.c        **** 
  92:main.c        **** 
  93:main.c        ****     // CAN Error counts -> Missing Receives
  94:main.c        ****     // ------------------------------------------------------------------------
  95:main.c        ****     // if(CanHeartbeatErrorInverters > CAN_HEARTBEAT_ERROR_DELAY)
  96:main.c        ****     // {
  97:main.c        ****     //     throw_error_code(ERROR_LEVEL_WARN, ERROR_CANBUS_1_NO_RESPONSE);
  98:main.c        ****     // }
  99:main.c        ****     // if(CanHeartbeatErrorData > CAN_HEARTBEAT_ERROR_DELAY)
 100:main.c        ****     // {
 101:main.c        ****     //     throw_error_code(ERROR_LEVEL_WARN, ERROR_CANBUS_2_NO_RESPONSE);
 102:main.c        ****     // }
 103:main.c        ****     // if(CanHeartbeatErrorPower > CAN_HEARTBEAT_ERROR_DELAY)
 104:main.c        ****     // {
 105:main.c        ****     //     throw_error_code(ERROR_LEVEL_WARN, ERROR_CANBUS_3_NO_RESPONSE);
 106:main.c        ****     // }
 107:main.c        ****     // CanHeartbeatErrorInverters++;
 108:main.c        ****     // CanHeartbeatErrorData++;
 109:main.c        ****     // CanHeartbeatErrorPower++;
 110:main.c        **** 
 111:main.c        **** 
 112:main.c        ****     // Send CAN input
 113:main.c        ****     // uint8_t tmpInputVal;
 114:main.c        ****     if(InputPedalThrottleCount > INPUT_TIME_PEDAL_THROTTLE)
 155               		.loc 1 114 5 view .LVU17
 156               		.loc 1 114 7 is_stmt 0 view .LVU18
 157 0000 8091 0000 		lds r24,InputPedalThrottleCount
 158 0004 8B30      		cpi r24,lo8(11)
 159 0006 00F0      		brlo .L6
 115:main.c        ****     {
 116:main.c        ****         INPUT_accelerationPedal = a2d_10bitCh(5);
 160               		.loc 1 116 9 is_stmt 1 view .LVU19
 161               		.loc 1 116 35 is_stmt 0 view .LVU20
 162 0008 85E0      		ldi r24,lo8(5)
 163 000a 0E94 0000 		call a2d_10bitCh
 164               	.LVL8:
 165               		.loc 1 116 33 view .LVU21
 166 000e 8093 0000 		sts INPUT_accelerationPedal,r24
 117:main.c        ****         // if(INPUT_get_accelPedal(&tmpInputVal) == 0) {
 118:main.c        ****         //     // PORTK |= 0b00100000;
 119:main.c        ****         //     INPUT_accelerationPedal = tmpInputVal;
 120:main.c        ****         // }
 121:main.c        ****         InputPedalThrottleCount = 0;
 167               		.loc 1 121 9 is_stmt 1 view .LVU22
 168               		.loc 1 121 33 is_stmt 0 view .LVU23
 169 0012 1092 0000 		sts InputPedalThrottleCount,__zero_reg__
 170               	.L6:
 122:main.c        ****     }
 123:main.c        **** 
 124:main.c        ****     // if(InputPedalBrakeCount > INPUT_TIME_PEDAL_BRAKE)
 125:main.c        ****     // {
 126:main.c        ****     //     if(INPUT_get_brakePedal(&tmpInputVal) == 0) {
 127:main.c        ****     //         INPUT_brakePedal = tmpInputVal;
 128:main.c        ****     //     }
 129:main.c        ****     //     InputPedalBrakeCount = 0;
 130:main.c        ****     // }
 131:main.c        ****     InputPedalThrottleCount++;
 171               		.loc 1 131 5 is_stmt 1 view .LVU24
 172               		.loc 1 131 28 is_stmt 0 view .LVU25
 173 0016 8091 0000 		lds r24,InputPedalThrottleCount
 174 001a 8F5F      		subi r24,lo8(-(1))
 175 001c 8093 0000 		sts InputPedalThrottleCount,r24
 176               	/* epilogue start */
 132:main.c        ****     // InputPedalBrakeCount++;
 133:main.c        ****     
 134:main.c        **** 
 135:main.c        ****     // if(INPUT_get_brakePressureBack(&tmpInputVal) == 0) {
 136:main.c        ****     //     INPUT_brakePressureBack = tmpInputVal;
 137:main.c        ****     // }
 138:main.c        ****     // if(INPUT_get_brakePressureFront(&tmpInputVal) == 0) {
 139:main.c        ****     //     INPUT_brakePressureFront = tmpInputVal;
 140:main.c        ****     // }
 141:main.c        **** }
 177               		.loc 1 141 1 view .LVU26
 178 0020 0895      		ret
 179               		.cfi_endproc
 180               	.LFE12:
 182               		.section	.text.__vector_17,"ax",@progbits
 183               	.global	__vector_17
 185               	__vector_17:
 186               	.LFB13:
 142:main.c        **** 
 143:main.c        **** // -------------------------------------------------- Interrupt Service Routines ------------------
 144:main.c        **** 
 145:main.c        **** /**
 146:main.c        ****  * @brief Called whenever the 1Khz timer triggers
 147:main.c        ****  */
 148:main.c        **** ISR(TIMER1_COMPA_vect)
 149:main.c        **** {
 187               		.loc 1 149 1 is_stmt 1 view -0
 188               		.cfi_startproc
 189 0000 1F92      		push r1
 190               	.LCFI0:
 191               		.cfi_def_cfa_offset 3
 192               		.cfi_offset 1, -2
 193 0002 0F92      		push r0
 194               	.LCFI1:
 195               		.cfi_def_cfa_offset 4
 196               		.cfi_offset 0, -3
 197 0004 0FB6      		in r0,__SREG__
 198 0006 0F92      		push r0
 199 0008 1124      		clr __zero_reg__
 200 000a 0BB6      		in r0,__RAMPZ__
 201 000c 0F92      		push r0
 202 000e 2F93      		push r18
 203               	.LCFI2:
 204               		.cfi_def_cfa_offset 5
 205               		.cfi_offset 18, -4
 206 0010 3F93      		push r19
 207               	.LCFI3:
 208               		.cfi_def_cfa_offset 6
 209               		.cfi_offset 19, -5
 210 0012 4F93      		push r20
 211               	.LCFI4:
 212               		.cfi_def_cfa_offset 7
 213               		.cfi_offset 20, -6
 214 0014 5F93      		push r21
 215               	.LCFI5:
 216               		.cfi_def_cfa_offset 8
 217               		.cfi_offset 21, -7
 218 0016 6F93      		push r22
 219               	.LCFI6:
 220               		.cfi_def_cfa_offset 9
 221               		.cfi_offset 22, -8
 222 0018 7F93      		push r23
 223               	.LCFI7:
 224               		.cfi_def_cfa_offset 10
 225               		.cfi_offset 23, -9
 226 001a 8F93      		push r24
 227               	.LCFI8:
 228               		.cfi_def_cfa_offset 11
 229               		.cfi_offset 24, -10
 230 001c 9F93      		push r25
 231               	.LCFI9:
 232               		.cfi_def_cfa_offset 12
 233               		.cfi_offset 25, -11
 234 001e AF93      		push r26
 235               	.LCFI10:
 236               		.cfi_def_cfa_offset 13
 237               		.cfi_offset 26, -12
 238 0020 BF93      		push r27
 239               	.LCFI11:
 240               		.cfi_def_cfa_offset 14
 241               		.cfi_offset 27, -13
 242 0022 EF93      		push r30
 243               	.LCFI12:
 244               		.cfi_def_cfa_offset 15
 245               		.cfi_offset 30, -14
 246 0024 FF93      		push r31
 247               	.LCFI13:
 248               		.cfi_def_cfa_offset 16
 249               		.cfi_offset 31, -15
 250               	/* prologue: Signal */
 251               	/* frame size = 0 */
 252               	/* stack size = 16 */
 253               	.L__stack_usage = 16
 150:main.c        ****     oneKHzTimer();
 254               		.loc 1 150 5 view .LVU28
 255 0026 0E94 0000 		call oneKHzTimer
 256               	.LVL9:
 257               	/* epilogue start */
 151:main.c        ****     // led_toggle();
 152:main.c        **** }
 258               		.loc 1 152 1 is_stmt 0 view .LVU29
 259 002a FF91      		pop r31
 260 002c EF91      		pop r30
 261 002e BF91      		pop r27
 262 0030 AF91      		pop r26
 263 0032 9F91      		pop r25
 264 0034 8F91      		pop r24
 265 0036 7F91      		pop r23
 266 0038 6F91      		pop r22
 267 003a 5F91      		pop r21
 268 003c 4F91      		pop r20
 269 003e 3F91      		pop r19
 270 0040 2F91      		pop r18
 271 0042 0F90      		pop r0
 272 0044 0BBE      		out __RAMPZ__,r0
 273 0046 0F90      		pop r0
 274 0048 0FBE      		out __SREG__,r0
 275 004a 0F90      		pop r0
 276 004c 1F90      		pop r1
 277 004e 1895      		reti
 278               		.cfi_endproc
 279               	.LFE13:
 281               		.section	.text.__vector_2,"ax",@progbits
 282               	.global	__vector_2
 284               	__vector_2:
 285               	.LFB14:
 153:main.c        **** 
 154:main.c        **** /**
 155:main.c        ****  * @brief Called whenever CANBUS 1 interupt is triggered
 156:main.c        ****  *        * When ever there is data waiting in CAN 1
 157:main.c        ****  */
 158:main.c        **** ISR(INT1_vect) {
 286               		.loc 1 158 16 is_stmt 1 view -0
 287               		.cfi_startproc
 288 0000 1F92      		push r1
 289               	.LCFI14:
 290               		.cfi_def_cfa_offset 3
 291               		.cfi_offset 1, -2
 292 0002 0F92      		push r0
 293               	.LCFI15:
 294               		.cfi_def_cfa_offset 4
 295               		.cfi_offset 0, -3
 296 0004 0FB6      		in r0,__SREG__
 297 0006 0F92      		push r0
 298 0008 1124      		clr __zero_reg__
 299 000a 0BB6      		in r0,__RAMPZ__
 300 000c 0F92      		push r0
 301 000e 2F93      		push r18
 302               	.LCFI16:
 303               		.cfi_def_cfa_offset 5
 304               		.cfi_offset 18, -4
 305 0010 3F93      		push r19
 306               	.LCFI17:
 307               		.cfi_def_cfa_offset 6
 308               		.cfi_offset 19, -5
 309 0012 4F93      		push r20
 310               	.LCFI18:
 311               		.cfi_def_cfa_offset 7
 312               		.cfi_offset 20, -6
 313 0014 5F93      		push r21
 314               	.LCFI19:
 315               		.cfi_def_cfa_offset 8
 316               		.cfi_offset 21, -7
 317 0016 6F93      		push r22
 318               	.LCFI20:
 319               		.cfi_def_cfa_offset 9
 320               		.cfi_offset 22, -8
 321 0018 7F93      		push r23
 322               	.LCFI21:
 323               		.cfi_def_cfa_offset 10
 324               		.cfi_offset 23, -9
 325 001a 8F93      		push r24
 326               	.LCFI22:
 327               		.cfi_def_cfa_offset 11
 328               		.cfi_offset 24, -10
 329 001c 9F93      		push r25
 330               	.LCFI23:
 331               		.cfi_def_cfa_offset 12
 332               		.cfi_offset 25, -11
 333 001e AF93      		push r26
 334               	.LCFI24:
 335               		.cfi_def_cfa_offset 13
 336               		.cfi_offset 26, -12
 337 0020 BF93      		push r27
 338               	.LCFI25:
 339               		.cfi_def_cfa_offset 14
 340               		.cfi_offset 27, -13
 341 0022 EF93      		push r30
 342               	.LCFI26:
 343               		.cfi_def_cfa_offset 15
 344               		.cfi_offset 30, -14
 345 0024 FF93      		push r31
 346               	.LCFI27:
 347               		.cfi_def_cfa_offset 16
 348               		.cfi_offset 31, -15
 349 0026 CF93      		push r28
 350               	.LCFI28:
 351               		.cfi_def_cfa_offset 17
 352               		.cfi_offset 28, -16
 353 0028 DF93      		push r29
 354               	.LCFI29:
 355               		.cfi_def_cfa_offset 18
 356               		.cfi_offset 29, -17
 357 002a CDB7      		in r28,__SP_L__
 358 002c DEB7      		in r29,__SP_H__
 359               	.LCFI30:
 360               		.cfi_def_cfa_register 28
 361 002e 2D97      		sbiw r28,13
 362               	.LCFI31:
 363               		.cfi_def_cfa_offset 31
 364 0030 DEBF      		out __SP_H__,r29
 365 0032 CDBF      		out __SP_L__,r28
 366               	/* prologue: Signal */
 367               	/* frame size = 13 */
 368               	/* stack size = 31 */
 369               	.L__stack_usage = 31
 159:main.c        **** 	// Details about the message we're attempting to pull from the CAN bus
 160:main.c        **** 	uint8_t data[8];
 370               		.loc 1 160 2 view .LVU31
 161:main.c        **** 	uint32_t ID;
 371               		.loc 1 161 2 view .LVU32
 162:main.c        **** 	uint8_t numBytes;
 372               		.loc 1 162 2 view .LVU33
 163:main.c        **** 
 164:main.c        **** 	// Get the data from the CAN bus and process it
 165:main.c        **** 	CAN_pull_packet(MCP2515_CAN1, &numBytes, data, &ID);
 373               		.loc 1 165 2 view .LVU34
 374 0034 9E01      		movw r18,r28
 375 0036 275F      		subi r18,-9
 376 0038 3F4F      		sbci r19,-1
 377 003a AE01      		movw r20,r28
 378 003c 4F5F      		subi r20,-1
 379 003e 5F4F      		sbci r21,-1
 380 0040 BE01      		movw r22,r28
 381 0042 635F      		subi r22,-13
 382 0044 7F4F      		sbci r23,-1
 383 0046 81E0      		ldi r24,lo8(1)
 384 0048 0E94 0000 		call CAN_pull_packet
 385               	.LVL10:
 386               	/* epilogue start */
 166:main.c        **** 
 167:main.c        ****     // If the data packet is crap
 168:main.c        ****     // throw_error_code(ERROR_LEVEL_WARN, ERROR_CANBUS_1_RESPONSE_MALFORMED);
 169:main.c        **** }
 387               		.loc 1 169 1 is_stmt 0 view .LVU35
 388 004c 2D96      		adiw r28,13
 389 004e 0FB6      		in __tmp_reg__,__SREG__
 390 0050 F894      		cli
 391 0052 DEBF      		out __SP_H__,r29
 392 0054 0FBE      		out __SREG__,__tmp_reg__
 393 0056 CDBF      		out __SP_L__,r28
 394 0058 DF91      		pop r29
 395 005a CF91      		pop r28
 396 005c FF91      		pop r31
 397 005e EF91      		pop r30
 398 0060 BF91      		pop r27
 399 0062 AF91      		pop r26
 400 0064 9F91      		pop r25
 401 0066 8F91      		pop r24
 402 0068 7F91      		pop r23
 403 006a 6F91      		pop r22
 404 006c 5F91      		pop r21
 405 006e 4F91      		pop r20
 406 0070 3F91      		pop r19
 407 0072 2F91      		pop r18
 408 0074 0F90      		pop r0
 409 0076 0BBE      		out __RAMPZ__,r0
 410 0078 0F90      		pop r0
 411 007a 0FBE      		out __SREG__,r0
 412 007c 0F90      		pop r0
 413 007e 1F90      		pop r1
 414 0080 1895      		reti
 415               		.cfi_endproc
 416               	.LFE14:
 418               		.section	.text.__vector_1,"ax",@progbits
 419               	.global	__vector_1
 421               	__vector_1:
 422               	.LFB15:
 170:main.c        **** 
 171:main.c        **** /**
 172:main.c        ****  * @brief Called whenever CANBUS 2 interupt is triggered
 173:main.c        ****  *        * When ever there is data waiting in CAN 2
 174:main.c        ****  */
 175:main.c        **** ISR(INT0_vect)	{
 423               		.loc 1 175 16 is_stmt 1 view -0
 424               		.cfi_startproc
 425 0000 1F92      		push r1
 426               	.LCFI32:
 427               		.cfi_def_cfa_offset 3
 428               		.cfi_offset 1, -2
 429 0002 0F92      		push r0
 430               	.LCFI33:
 431               		.cfi_def_cfa_offset 4
 432               		.cfi_offset 0, -3
 433 0004 0FB6      		in r0,__SREG__
 434 0006 0F92      		push r0
 435 0008 1124      		clr __zero_reg__
 436 000a 0BB6      		in r0,__RAMPZ__
 437 000c 0F92      		push r0
 438 000e 2F93      		push r18
 439               	.LCFI34:
 440               		.cfi_def_cfa_offset 5
 441               		.cfi_offset 18, -4
 442 0010 3F93      		push r19
 443               	.LCFI35:
 444               		.cfi_def_cfa_offset 6
 445               		.cfi_offset 19, -5
 446 0012 4F93      		push r20
 447               	.LCFI36:
 448               		.cfi_def_cfa_offset 7
 449               		.cfi_offset 20, -6
 450 0014 5F93      		push r21
 451               	.LCFI37:
 452               		.cfi_def_cfa_offset 8
 453               		.cfi_offset 21, -7
 454 0016 6F93      		push r22
 455               	.LCFI38:
 456               		.cfi_def_cfa_offset 9
 457               		.cfi_offset 22, -8
 458 0018 7F93      		push r23
 459               	.LCFI39:
 460               		.cfi_def_cfa_offset 10
 461               		.cfi_offset 23, -9
 462 001a 8F93      		push r24
 463               	.LCFI40:
 464               		.cfi_def_cfa_offset 11
 465               		.cfi_offset 24, -10
 466 001c 9F93      		push r25
 467               	.LCFI41:
 468               		.cfi_def_cfa_offset 12
 469               		.cfi_offset 25, -11
 470 001e AF93      		push r26
 471               	.LCFI42:
 472               		.cfi_def_cfa_offset 13
 473               		.cfi_offset 26, -12
 474 0020 BF93      		push r27
 475               	.LCFI43:
 476               		.cfi_def_cfa_offset 14
 477               		.cfi_offset 27, -13
 478 0022 EF93      		push r30
 479               	.LCFI44:
 480               		.cfi_def_cfa_offset 15
 481               		.cfi_offset 30, -14
 482 0024 FF93      		push r31
 483               	.LCFI45:
 484               		.cfi_def_cfa_offset 16
 485               		.cfi_offset 31, -15
 486 0026 CF93      		push r28
 487               	.LCFI46:
 488               		.cfi_def_cfa_offset 17
 489               		.cfi_offset 28, -16
 490 0028 DF93      		push r29
 491               	.LCFI47:
 492               		.cfi_def_cfa_offset 18
 493               		.cfi_offset 29, -17
 494 002a CDB7      		in r28,__SP_L__
 495 002c DEB7      		in r29,__SP_H__
 496               	.LCFI48:
 497               		.cfi_def_cfa_register 28
 498 002e 2D97      		sbiw r28,13
 499               	.LCFI49:
 500               		.cfi_def_cfa_offset 31
 501 0030 DEBF      		out __SP_H__,r29
 502 0032 CDBF      		out __SP_L__,r28
 503               	/* prologue: Signal */
 504               	/* frame size = 13 */
 505               	/* stack size = 31 */
 506               	.L__stack_usage = 31
 176:main.c        **** 	// Details about the message we're attempting to pull from the CAN bus
 177:main.c        **** 	uint8_t data[8];
 507               		.loc 1 177 2 view .LVU37
 178:main.c        **** 	uint32_t ID;
 508               		.loc 1 178 2 view .LVU38
 179:main.c        **** 	uint8_t numBytes;
 509               		.loc 1 179 2 view .LVU39
 180:main.c        **** 
 181:main.c        **** 	// Get the data from the CAN bus and process it
 182:main.c        **** 	CAN_pull_packet(MCP2515_CAN2, &numBytes, data, &ID);
 510               		.loc 1 182 2 view .LVU40
 511 0034 9E01      		movw r18,r28
 512 0036 275F      		subi r18,-9
 513 0038 3F4F      		sbci r19,-1
 514 003a AE01      		movw r20,r28
 515 003c 4F5F      		subi r20,-1
 516 003e 5F4F      		sbci r21,-1
 517 0040 BE01      		movw r22,r28
 518 0042 635F      		subi r22,-13
 519 0044 7F4F      		sbci r23,-1
 520 0046 82E0      		ldi r24,lo8(2)
 521 0048 0E94 0000 		call CAN_pull_packet
 522               	.LVL11:
 523               	/* epilogue start */
 183:main.c        **** 
 184:main.c        ****     // If the data packet is crap
 185:main.c        ****     // throw_error_code(ERROR_LEVEL_WARN, ERROR_CANBUS_2_RESPONSE_MALFORMED);
 186:main.c        **** }
 524               		.loc 1 186 1 is_stmt 0 view .LVU41
 525 004c 2D96      		adiw r28,13
 526 004e 0FB6      		in __tmp_reg__,__SREG__
 527 0050 F894      		cli
 528 0052 DEBF      		out __SP_H__,r29
 529 0054 0FBE      		out __SREG__,__tmp_reg__
 530 0056 CDBF      		out __SP_L__,r28
 531 0058 DF91      		pop r29
 532 005a CF91      		pop r28
 533 005c FF91      		pop r31
 534 005e EF91      		pop r30
 535 0060 BF91      		pop r27
 536 0062 AF91      		pop r26
 537 0064 9F91      		pop r25
 538 0066 8F91      		pop r24
 539 0068 7F91      		pop r23
 540 006a 6F91      		pop r22
 541 006c 5F91      		pop r21
 542 006e 4F91      		pop r20
 543 0070 3F91      		pop r19
 544 0072 2F91      		pop r18
 545 0074 0F90      		pop r0
 546 0076 0BBE      		out __RAMPZ__,r0
 547 0078 0F90      		pop r0
 548 007a 0FBE      		out __SREG__,r0
 549 007c 0F90      		pop r0
 550 007e 1F90      		pop r1
 551 0080 1895      		reti
 552               		.cfi_endproc
 553               	.LFE15:
 555               		.section	.text.__vector_9,"ax",@progbits
 556               	.global	__vector_9
 558               	__vector_9:
 559               	.LFB16:
 187:main.c        **** 
 188:main.c        **** /**
 189:main.c        ****  * @brief Called whenever CANBUS 3 interupt is triggered
 190:main.c        ****  *        * When ever there is data waiting in CAN 3
 191:main.c        ****  */
 192:main.c        **** ISR(PCINT0_vect) {
 560               		.loc 1 192 18 is_stmt 1 view -0
 561               		.cfi_startproc
 562 0000 1F92      		push r1
 563               	.LCFI50:
 564               		.cfi_def_cfa_offset 3
 565               		.cfi_offset 1, -2
 566 0002 0F92      		push r0
 567               	.LCFI51:
 568               		.cfi_def_cfa_offset 4
 569               		.cfi_offset 0, -3
 570 0004 0FB6      		in r0,__SREG__
 571 0006 0F92      		push r0
 572 0008 1124      		clr __zero_reg__
 573 000a 0BB6      		in r0,__RAMPZ__
 574 000c 0F92      		push r0
 575 000e 2F93      		push r18
 576               	.LCFI52:
 577               		.cfi_def_cfa_offset 5
 578               		.cfi_offset 18, -4
 579 0010 3F93      		push r19
 580               	.LCFI53:
 581               		.cfi_def_cfa_offset 6
 582               		.cfi_offset 19, -5
 583 0012 4F93      		push r20
 584               	.LCFI54:
 585               		.cfi_def_cfa_offset 7
 586               		.cfi_offset 20, -6
 587 0014 5F93      		push r21
 588               	.LCFI55:
 589               		.cfi_def_cfa_offset 8
 590               		.cfi_offset 21, -7
 591 0016 6F93      		push r22
 592               	.LCFI56:
 593               		.cfi_def_cfa_offset 9
 594               		.cfi_offset 22, -8
 595 0018 7F93      		push r23
 596               	.LCFI57:
 597               		.cfi_def_cfa_offset 10
 598               		.cfi_offset 23, -9
 599 001a 8F93      		push r24
 600               	.LCFI58:
 601               		.cfi_def_cfa_offset 11
 602               		.cfi_offset 24, -10
 603 001c 9F93      		push r25
 604               	.LCFI59:
 605               		.cfi_def_cfa_offset 12
 606               		.cfi_offset 25, -11
 607 001e AF93      		push r26
 608               	.LCFI60:
 609               		.cfi_def_cfa_offset 13
 610               		.cfi_offset 26, -12
 611 0020 BF93      		push r27
 612               	.LCFI61:
 613               		.cfi_def_cfa_offset 14
 614               		.cfi_offset 27, -13
 615 0022 EF93      		push r30
 616               	.LCFI62:
 617               		.cfi_def_cfa_offset 15
 618               		.cfi_offset 30, -14
 619 0024 FF93      		push r31
 620               	.LCFI63:
 621               		.cfi_def_cfa_offset 16
 622               		.cfi_offset 31, -15
 623 0026 CF93      		push r28
 624               	.LCFI64:
 625               		.cfi_def_cfa_offset 17
 626               		.cfi_offset 28, -16
 627 0028 DF93      		push r29
 628               	.LCFI65:
 629               		.cfi_def_cfa_offset 18
 630               		.cfi_offset 29, -17
 631 002a CDB7      		in r28,__SP_L__
 632 002c DEB7      		in r29,__SP_H__
 633               	.LCFI66:
 634               		.cfi_def_cfa_register 28
 635 002e 2D97      		sbiw r28,13
 636               	.LCFI67:
 637               		.cfi_def_cfa_offset 31
 638 0030 DEBF      		out __SP_H__,r29
 639 0032 CDBF      		out __SP_L__,r28
 640               	/* prologue: Signal */
 641               	/* frame size = 13 */
 642               	/* stack size = 31 */
 643               	.L__stack_usage = 31
 193:main.c        **** 	// Details about the message we're attempting to pull from the CAN bus
 194:main.c        **** 	uint8_t data[8];
 644               		.loc 1 194 2 view .LVU43
 195:main.c        **** 	uint32_t ID;
 645               		.loc 1 195 2 view .LVU44
 196:main.c        **** 	uint8_t numBytes;
 646               		.loc 1 196 2 view .LVU45
 197:main.c        **** 
 198:main.c        **** 	// Get the data from the CAN bus and process it
 199:main.c        **** 	CAN_pull_packet(MCP2515_CAN3, &numBytes, data, &ID);
 647               		.loc 1 199 2 view .LVU46
 648 0034 9E01      		movw r18,r28
 649 0036 275F      		subi r18,-9
 650 0038 3F4F      		sbci r19,-1
 651 003a AE01      		movw r20,r28
 652 003c 4F5F      		subi r20,-1
 653 003e 5F4F      		sbci r21,-1
 654 0040 BE01      		movw r22,r28
 655 0042 635F      		subi r22,-13
 656 0044 7F4F      		sbci r23,-1
 657 0046 84E0      		ldi r24,lo8(4)
 658 0048 0E94 0000 		call CAN_pull_packet
 659               	.LVL12:
 660               	/* epilogue start */
 200:main.c        **** 
 201:main.c        ****     // If the data packet is crap
 202:main.c        ****     // throw_error_code(ERROR_LEVEL_WARN, ERROR_CANBUS_3_RESPONSE_MALFORMED);
 203:main.c        **** }...
 661               		.loc 1 203 1 is_stmt 0 view .LVU47
 662 004c 2D96      		adiw r28,13
 663 004e 0FB6      		in __tmp_reg__,__SREG__
 664 0050 F894      		cli
 665 0052 DEBF      		out __SP_H__,r29
 666 0054 0FBE      		out __SREG__,__tmp_reg__
 667 0056 CDBF      		out __SP_L__,r28
 668 0058 DF91      		pop r29
 669 005a CF91      		pop r28
 670 005c FF91      		pop r31
 671 005e EF91      		pop r30
 672 0060 BF91      		pop r27
 673 0062 AF91      		pop r26
 674 0064 9F91      		pop r25
 675 0066 8F91      		pop r24
 676 0068 7F91      		pop r23
 677 006a 6F91      		pop r22
 678 006c 5F91      		pop r21
 679 006e 4F91      		pop r20
 680 0070 3F91      		pop r19
 681 0072 2F91      		pop r18
 682 0074 0F90      		pop r0
 683 0076 0BBE      		out __RAMPZ__,r0
 684 0078 0F90      		pop r0
 685 007a 0FBE      		out __SREG__,r0
 686 007c 0F90      		pop r0
 687 007e 1F90      		pop r1
 688 0080 1895      		reti
 689               		.cfi_endproc
 690               	.LFE16:
 692               		.text
 693               	.Letext0:
 694               		.file 2 "/usr/local/Cellar/avr-gcc/8.1.0/avr/include/stdint.h"
 695               		.file 3 "/usr/local/Cellar/avr-gcc/8.1.0/lib/avr-gcc/8/gcc/avr/8.1.0/include/stddef.h"
 696               		.file 4 "/usr/local/Cellar/avr-gcc/8.1.0/avr/include/stdio.h"
 697               		.file 5 "/usr/local/Cellar/avr-gcc/8.1.0/avr/include/stdlib.h"
 698               		.file 6 "utils/uart.h"
 699               		.file 7 "includes/chassisInput.h"
 700               		.file 8 "main.h"
 701               		.file 9 "includes/chassisCAN.h"
 702               		.file 10 "utils/a2d.h"
 703               		.file 11 "includes/chassisInit.h"